gpasm-0.13.6 beta               _output/main__mios-gpasm-tmp.asm7-10-2008  15:16:01          PAGE  1


LOC  OBJECT CODE     LINE SOURCE TEXT
  VALUE
 
               00001 ;--------------------------------------------------------
               00002 ; File Created by SDCC : free open source ANSI-C Compiler
               00003 ; Version 2.8.0 #5082 (Mar  9 2008) (MINGW32)
               00004 ; This file was generated Thu Jul 10 15:16:00 2008
               00005 ;--------------------------------------------------------
               00006 ; PIC16 port for the Microchip 16-bit core micros
               00007 ;--------------------------------------------------------
               00008 
               00009         .ident "SDCC version 2.8.0 #5082 [pic16 port]"
               00010         .file   "main.c"
               00011         list    p=18f4620
               00012 
               00013         radix dec
               00014 
               00015 ;--------------------------------------------------------
               00016 ; public variables in this module
               00017 ;--------------------------------------------------------
               00018         global _DISPLAY_lfobpm
               00019         global _app_flags
               00020         global _eg_select_hlp
               00021         global _jog_value
               00022         global _lcd_temp
               00023         global _CursorBpm
               00024         global _preset
               00025         global _bank
               00026         global _lfo_bpm_temp
               00027         global _Init
               00028         global _Tick
               00029         global _Timer
               00030         global _DISPLAY_Init
               00031         global _DISPLAY_Tick
               00032         global _MPROC_NotifyReceivedEvnt
               00033         global _MPROC_NotifyFoundEvent
               00034         global _MPROC_NotifyTimeout
               00035         global _MPROC_NotifyReceivedByte
               00036         global _SR_Service_Prepare
               00037         global _SR_Service_Finish
               00038         global _DIN_NotifyToggle
               00039         global _ENC_NotifyChange
               00040         global _AIN_NotifyChange
               00041 
               00042 ;--------------------------------------------------------
               00043 ; extern variables in this module
               00044 ;--------------------------------------------------------
               00045         extern _MIOS_BOX_CFG0
               00046         extern _MIOS_BOX_CFG1
               00047         extern _MIOS_BOX_STAT
               00048         extern _MIOS_PARAMETER1
               00049         extern _MIOS_PARAMETER2
               00050         extern _MIOS_PARAMETER3
               00051         extern _PORTAbits
               00052         extern _PORTBbits
               00053         extern _PORTCbits
               00054         extern _PORTDbits
gpasm-0.13.6 beta               _output/main__mios-gpasm-tmp.asm7-10-2008  15:16:01          PAGE  2


LOC  OBJECT CODE     LINE SOURCE TEXT
  VALUE
 
               00055         extern _PORTEbits
               00056         extern _LATAbits
               00057         extern _LATBbits
               00058         extern _LATCbits
               00059         extern _LATDbits
               00060         extern _LATEbits
               00061         extern _TRISAbits
               00062         extern _TRISBbits
               00063         extern _TRISCbits
               00064         extern _TRISDbits
               00065         extern _TRISEbits
               00066         extern _OSCTUNEbits
               00067         extern _PIE1bits
               00068         extern _PIR1bits
               00069         extern _IPR1bits
               00070         extern _PIE2bits
               00071         extern _PIR2bits
               00072         extern _IPR2bits
               00073         extern _EECON1bits
               00074         extern _RCSTAbits
               00075         extern _TXSTAbits
               00076         extern _T3CONbits
               00077         extern _CMCONbits
               00078         extern _CVRCONbits
               00079         extern _ECCP1ASbits
               00080         extern _PWM1CONbits
               00081         extern _BAUDCONbits
               00082         extern _CCP2CONbits
               00083         extern _CCP1CONbits
               00084         extern _ADCON2bits
               00085         extern _ADCON1bits
               00086         extern _ADCON0bits
               00087         extern _SSPCON2bits
               00088         extern _SSPCON1bits
               00089         extern _SSPSTATbits
               00090         extern _T2CONbits
               00091         extern _T1CONbits
               00092         extern _RCONbits
               00093         extern _WDTCONbits
               00094         extern _HLVDCONbits
               00095         extern _OSCCONbits
               00096         extern _T0CONbits
               00097         extern _STATUSbits
               00098         extern _FSR2Hbits
               00099         extern _BSRbits
               00100         extern _FSR1Hbits
               00101         extern _FSR0Hbits
               00102         extern _INTCON3bits
               00103         extern _INTCON2bits
               00104         extern _INTCONbits
               00105         extern _TBLPTRUbits
               00106         extern _PCLATHbits
               00107         extern _PCLATUbits
               00108         extern _STKPTRbits
gpasm-0.13.6 beta               _output/main__mios-gpasm-tmp.asm7-10-2008  15:16:01          PAGE  3


LOC  OBJECT CODE     LINE SOURCE TEXT
  VALUE
 
               00109         extern _TOSUbits
               00110         extern _looper
               00111         extern _midi_note
               00112         extern _midi_cc_chn0
               00113         extern _midi_pitch_bender
               00114         extern _new_note
               00115         extern _lfo0_value
               00116         extern _lfo1_value
               00117         extern _lfo2_value
               00118         extern _eg0
               00119         extern _eg1
               00120         extern _eg2
               00121         extern _eg3
               00122         extern _eg0_value
               00123         extern _eg1_value
               00124         extern _eg2_value
               00125         extern _eg3_value
               00126         extern _all_param
               00127         extern _load_last
               00128         extern _update_led
               00129         extern _update_preset_led
               00130         extern _PORTA
               00131         extern _PORTB
               00132         extern _PORTC
               00133         extern _PORTD
               00134         extern _PORTE
               00135         extern _LATA
               00136         extern _LATB
               00137         extern _LATC
               00138         extern _LATD
               00139         extern _LATE
               00140         extern _TRISA
               00141         extern _TRISB
               00142         extern _TRISC
               00143         extern _TRISD
               00144         extern _TRISE
               00145         extern _OSCTUNE
               00146         extern _PIE1
               00147         extern _PIR1
               00148         extern _IPR1
               00149         extern _PIE2
               00150         extern _PIR2
               00151         extern _IPR2
               00152         extern _EECON1
               00153         extern _EECON2
               00154         extern _EEDATA
               00155         extern _EEADR
               00156         extern _RCSTA
               00157         extern _TXSTA
               00158         extern _TXREG
               00159         extern _RCREG
               00160         extern _SPBRG
               00161         extern _SPBRGH
               00162         extern _T3CON
gpasm-0.13.6 beta               _output/main__mios-gpasm-tmp.asm7-10-2008  15:16:01          PAGE  4


LOC  OBJECT CODE     LINE SOURCE TEXT
  VALUE
 
               00163         extern _TMR3L
               00164         extern _TMR3H
               00165         extern _CMCON
               00166         extern _CVRCON
               00167         extern _ECCP1AS
               00168         extern _PWM1CON
               00169         extern _BAUDCON
               00170         extern _CCP2CON
               00171         extern _CCPR2L
               00172         extern _CCPR2H
               00173         extern _CCP1CON
               00174         extern _CCPR1L
               00175         extern _CCPR1H
               00176         extern _ADCON2
               00177         extern _ADCON1
               00178         extern _ADCON0
               00179         extern _ADRESL
               00180         extern _ADRESH
               00181         extern _SSPCON2
               00182         extern _SSPCON1
               00183         extern _SSPSTAT
               00184         extern _SSPADD
               00185         extern _SSPBUF
               00186         extern _T2CON
               00187         extern _PR2
               00188         extern _TMR2
               00189         extern _T1CON
               00190         extern _TMR1L
               00191         extern _TMR1H
               00192         extern _RCON
               00193         extern _WDTCON
               00194         extern _HLVDCON
               00195         extern _OSCCON
               00196         extern _T0CON
               00197         extern _TMR0L
               00198         extern _TMR0H
               00199         extern _STATUS
               00200         extern _FSR2L
               00201         extern _FSR2H
               00202         extern _PLUSW2
               00203         extern _PREINC2
               00204         extern _POSTDEC2
               00205         extern _POSTINC2
               00206         extern _INDF2
               00207         extern _BSR
               00208         extern _FSR1L
               00209         extern _FSR1H
               00210         extern _PLUSW1
               00211         extern _PREINC1
               00212         extern _POSTDEC1
               00213         extern _POSTINC1
               00214         extern _INDF1
               00215         extern _WREG
               00216         extern _FSR0L
gpasm-0.13.6 beta               _output/main__mios-gpasm-tmp.asm7-10-2008  15:16:01          PAGE  5


LOC  OBJECT CODE     LINE SOURCE TEXT
  VALUE
 
               00217         extern _FSR0H
               00218         extern _PLUSW0
               00219         extern _PREINC0
               00220         extern _POSTDEC0
               00221         extern _POSTINC0
               00222         extern _INDF0
               00223         extern _INTCON3
               00224         extern _INTCON2
               00225         extern _INTCON
               00226         extern _PRODL
               00227         extern _PRODH
               00228         extern _TABLAT
               00229         extern _TBLPTRL
               00230         extern _TBLPTRH
               00231         extern _TBLPTRU
               00232         extern _PCL
               00233         extern _PCLATH
               00234         extern _PCLATU
               00235         extern _STKPTR
               00236         extern _TOSL
               00237         extern _TOSH
               00238         extern _TOSU
               00239         extern _MIOS_AIN_DeadbandSet
               00240         extern _MIOS_AIN_NumberSet
               00241         extern _MIOS_AIN_UnMuxed
               00242         extern _MIOS_DOUT_PinGet
               00243         extern _MIOS_DOUT_PinSet
               00244         extern _MIOS_DOUT_SRGet
               00245         extern _MIOS_DOUT_SRSet
               00246         extern _MIOS_SRIO_NumberSet
               00247         extern _MIOS_SRIO_UpdateFrqSet
               00248         extern _MIOS_LCD_Clear
               00249         extern _MIOS_LCD_CursorSet
               00250         extern _MIOS_LCD_PrintBCD3
               00251         extern _MIOS_LCD_PrintCString
               00252         extern _MIOS_TIMER_Init
               00253         extern _MIOS_HLP_16bitAddSaturate
               00254         extern _AOUT_Init
               00255         extern _AOUT_Update
               00256         extern _MIDI_Init
               00257         extern _MIDI_Evnt
               00258         extern _LFO_Init
               00259         extern _LFO_Tick
               00260         extern _EG_Init
               00261         extern _EG_Tick
               00262         extern _MAP_Init
               00263         extern _MAP_Tick
               00264         extern _BANKSTICK_Init
               00265         extern _BANKSTICK_LOAD_Evnt
               00266         extern _BANKSTICK_SAVE_Evnt
               00267         extern _BANKSTICK_Dout_Update
               00268         extern _BANKSTICK_Dout_Update_2
               00269         extern _BANKSTICK_Dout_Update_3
               00270         extern _BANKSTICK_preset_LEDs_Update
gpasm-0.13.6 beta               _output/main__mios-gpasm-tmp.asm7-10-2008  15:16:01          PAGE  6


LOC  OBJECT CODE     LINE SOURCE TEXT
  VALUE
 
               00271         extern _mios_enc_pin_table
               00272         extern _mios_mproc_event_table
               00273         extern _MIOS_MPROC_EVENT_TABLE
               00274         extern _MIOS_ENC_PIN_TABLE
               00275 ;--------------------------------------------------------
               00276 ;       Equates to used internal registers
               00277 ;--------------------------------------------------------
  00000FD8     00278 STATUS  equ     0xfd8
  00000FF9     00279 PCL     equ     0xff9
  00000FFA     00280 PCLATH  equ     0xffa
  00000FFB     00281 PCLATU  equ     0xffb
  00000FE8     00282 WREG    equ     0xfe8
  00000FE1     00283 FSR0L equ 0xfe1 ;; normaly 0xfe9, changed by mios-gpasm
  00000FE2     00284 FSR0H equ 0xfe2 ;; normaly 0xfea, changed by mios-gpasm
  00000FE9     00285 FSR1L equ 0xfe9 ;; normaly 0xfe1, changed by mios-gpasm
  00000FD9     00286 FSR2L   equ     0xfd9
  00000FE7     00287 INDF0 equ 0xfe7 ;; normaly 0xfef, changed by mios-gpasm
  00000FED     00288 POSTDEC1 equ 0xfed ;; normaly 0xfe5, changed by mios-gpasm
  00000FEC     00289 PREINC1 equ 0xfec ;; normaly 0xfe4, changed by mios-gpasm
  00000FDB     00290 PLUSW2  equ     0xfdb
  00000FF4     00291 PRODH   equ     0xff4
               00292 
               00293 
               00294         idata
               00295 _CursorBpm      db      0x01
               00296 
               00297 
               00298 ; Internal registers
               00299 .registers udata_ovr 0x0010 ;; normaly 0x0000, changed by mios-gpasm
               00300 r0x00   res     1
               00301 r0x01   res     1
               00302 r0x02   res     1
               00303 r0x03   res     1
               00304 r0x04   res     1
               00305 r0x05   res     1
               00306 
               00307 
               00308 gpr14   udata
               00309 
               00310 udata_main_0    udata
               00311 _bank   res     2
               00312 
               00313 udata_main_1    udata
               00314 _preset res     2
               00315 
               00316 udata_main_2    udata
               00317 _app_flags      res     1
               00318 
               00319 udata_main_3    udata
               00320 _lcd_temp       res     1
               00321 
               00322 udata_main_4    udata
               00323 _lfo_bpm_temp   res     1
               00324 
gpasm-0.13.6 beta               _output/main__mios-gpasm-tmp.asm7-10-2008  15:16:01          PAGE  7


LOC  OBJECT CODE     LINE SOURCE TEXT
  VALUE
 
               00325 udata_main_5    udata
               00326 _DISPLAY_lfobpm_lfo_bpm_temp_1_1        res     1
               00327 
               00328 udata_main_6    udata
               00329 _eg_select_hlp  res     1
               00330 
               00331 udata_main_7    udata
               00332 _ENC_NotifyChange_new_value_1_1 res     2
               00333 
               00334 udata_main_8    udata
               00335 _jog_value      res     2
               00336 
               00337 udata_main_9    udata
               00338 iTemp109        res     1
               00339 
               00340 udata_main_10   udata
               00341 iTemp124        res     1
               00342 
               00343 udata_main_11   udata
               00344 iTemp139        res     1
               00345 
               00346 ;--------------------------------------------------------
               00347 ; global & static initialisations
               00348 ;--------------------------------------------------------
               00349 ; I code from now on!
               00350 ; ; Starting pCode block
               00351 S_main__AIN_NotifyChange        code
0000           00352 _AIN_NotifyChange:
               00353         .line   807; main.c     void AIN_NotifyChange(unsigned char pin, unsigned int pin_value) __wparam
0000 CFD9 FFED 00354         MOVFF   FSR2L, POSTDEC1
0004 CFE9 FFD9 00355         MOVFF   FSR1L, FSR2L
               00356         .line   809; main.c     }
0008 CFEC FFD9 00357         MOVFF   PREINC1, FSR2L
000C 0012      00358         RETURN  
               00359 
               00360 ; ; Starting pCode block
               00361 S_main__ENC_NotifyChange        code
0000           00362 _ENC_NotifyChange:
               00363         .line   680; main.c     void ENC_NotifyChange(unsigned char encoder, char incrementer) __wparam
0000 CFD9 FFED 00364         MOVFF   FSR2L, POSTDEC1
0004 CFE9 FFD9 00365         MOVFF   FSR1L, FSR2L
0008 C000 FFED 00366         MOVFF   r0x00, POSTDEC1
000C C000 FFED 00367         MOVFF   r0x01, POSTDEC1
0010 C000 FFED 00368         MOVFF   r0x02, POSTDEC1
0014 C000 FFED 00369         MOVFF   r0x03, POSTDEC1
0018 6E00      00370         MOVWF   r0x00
001A 0E02      00371         MOVLW   0x02
001C CFDB F000 00372         MOVFF   PLUSW2, r0x01
               00373         .line   683; main.c     switch( encoder ) {
0020 0E08      00374         MOVLW   0x08
0022 5C00      00375         SUBWF   r0x00, W
0024 B0D8      00376         BTFSC   STATUS, 0
0026 EF00 F000 00377         GOTO    _00636_DS_
002A C000 FFED 00378         MOVFF   r0x04, POSTDEC1
gpasm-0.13.6 beta               _output/main__mios-gpasm-tmp.asm7-10-2008  15:16:01          PAGE  8


LOC  OBJECT CODE     LINE SOURCE TEXT
  VALUE
 
002E C000 FFED 00379         MOVFF   r0x05, POSTDEC1
0032 6A00      00380         CLRF    r0x05
0034 3400      00381         RLCF    r0x00, W
0036 3600      00382         RLCF    r0x05, F
0038 34E8      00383         RLCF    WREG, W
003A 3600      00384         RLCF    r0x05, F
003C 0BFC      00385         ANDLW   0xfc
003E 6E00      00386         MOVWF   r0x04
0040 0E00      00387         MOVLW   UPPER(_00664_DS_)
0042 6EFB      00388         MOVWF   PCLATU
0044 0E00      00389         MOVLW   HIGH(_00664_DS_)
0046 6EFA      00390         MOVWF   PCLATH
0048 0E00      00391         MOVLW   LOW(_00664_DS_)
004A 2600      00392         ADDWF   r0x04, F
004C 5000      00393         MOVF    r0x05, W
004E 22FA      00394         ADDWFC  PCLATH, F
0050 B0D8      00395         BTFSC   STATUS, 0
0052 2AFB      00396         INCF    PCLATU, F
0054 5000      00397         MOVF    r0x04, W
0056 CFEC F000 00398         MOVFF   PREINC1, r0x05
005A CFEC F000 00399         MOVFF   PREINC1, r0x04
005E 6EF9      00400         MOVWF   PCL
0060           00401 _00664_DS_:
0060 EF00 F000 00402         GOTO    _00572_DS_
0064 EF00 F000 00403         GOTO    _00577_DS_
0068 EF00 F000 00404         GOTO    _00582_DS_
006C EF00 F000 00405         GOTO    _00585_DS_
0070 EF00 F000 00406         GOTO    _00588_DS_
0074 EF00 F000 00407         GOTO    _00607_DS_
0078 EF00 F000 00408         GOTO    _00617_DS_
007C EF00 F000 00409         GOTO    _00627_DS_
0080           00410 _00572_DS_:
0080 0000      00411         BANKSEL (_all_param + 3)
               00412         .line   686; main.c     if( all_param.router_flags_lfo1_att.ALL_flags_lfo1_att & all_param.eg_select )  {
0082 5100      00413         MOVF    (_all_param + 3), W, B
0084 0BFF      00414         ANDLW   0xff
0086 6E00      00415         MOVWF   r0x00
               00416 ; removed redundant BANKSEL
0088 5100      00417         MOVF    (_all_param + 38), W, B
008A 1600      00418         ANDWF   r0x00, F
008C 5000      00419         MOVF    r0x00, W
008E A4D8      00420         BTFSS   STATUS, 2
0090 EF00 F000 00421         GOTO    _00636_DS_
               00422         .line   688; main.c     new_value = (unsigned int)all_param.attack[eg_select_hlp];
0094 C000 F000 00423         MOVFF   _eg_select_hlp, r0x00
0098 6A00      00424         CLRF    r0x02
009A 0E00      00425         MOVLW   LOW(_all_param + 16)
009C 2600      00426         ADDWF   r0x00, F
009E 0E00      00427         MOVLW   HIGH(_all_param + 16)
00A0 2200      00428         ADDWFC  r0x02, F
00A2 C000 FFE1 00429         MOVFF   r0x00, FSR0L
00A6 C000 FFE2 00430         MOVFF   r0x02, FSR0H
00AA CFE7 F000 00431         MOVFF   INDF0, r0x00
00AE C000 F000 00432         MOVFF   r0x00, _ENC_NotifyChange_new_value_1_1
gpasm-0.13.6 beta               _output/main__mios-gpasm-tmp.asm7-10-2008  15:16:01          PAGE  9


LOC  OBJECT CODE     LINE SOURCE TEXT
  VALUE
 
00B2 0000      00433         BANKSEL (_ENC_NotifyChange_new_value_1_1 + 1)
00B4 6B00      00434         CLRF    (_ENC_NotifyChange_new_value_1_1 + 1), B
               00435         .line   689; main.c     if( MIOS_HLP_16bitAddSaturate(incrementer, &new_value, 0xff) ) {
00B6 0E00      00436         MOVLW   HIGH(_ENC_NotifyChange_new_value_1_1)
00B8 6E00      00437         MOVWF   r0x02
00BA 0E00      00438         MOVLW   LOW(_ENC_NotifyChange_new_value_1_1)
00BC 6E00      00439         MOVWF   r0x00
00BE 0E80      00440         MOVLW   0x80
00C0 6E00      00441         MOVWF   r0x03
00C2 0E00      00442         MOVLW   0x00
00C4 6EED      00443         MOVWF   POSTDEC1
00C6 0EFF      00444         MOVLW   0xff
00C8 6EED      00445         MOVWF   POSTDEC1
00CA 5000      00446         MOVF    r0x03, W
00CC 6EED      00447         MOVWF   POSTDEC1
00CE 5000      00448         MOVF    r0x02, W
00D0 6EED      00449         MOVWF   POSTDEC1
00D2 5000      00450         MOVF    r0x00, W
00D4 6EED      00451         MOVWF   POSTDEC1
00D6 5000      00452         MOVF    r0x01, W
00D8 EC00 F000 00453         CALL    _MIOS_HLP_16bitAddSaturate
00DC 6E00      00454         MOVWF   r0x00
00DE 0E05      00455         MOVLW   0x05
00E0 26E9      00456         ADDWF   FSR1L, F
00E2 5000      00457         MOVF    r0x00, W
00E4 B4D8      00458         BTFSC   STATUS, 2
00E6 EF00 F000 00459         GOTO    _00636_DS_
               00460         .line   690; main.c     all_param.attack[eg_select_hlp] = (unsigned char)new_value;}
00EA C000 F000 00461         MOVFF   _eg_select_hlp, r0x00
00EE 6A00      00462         CLRF    r0x02
00F0 0E00      00463         MOVLW   LOW(_all_param + 16)
00F2 2600      00464         ADDWF   r0x00, F
00F4 0E00      00465         MOVLW   HIGH(_all_param + 16)
00F6 2200      00466         ADDWFC  r0x02, F
00F8 0000      00467         BANKSEL _ENC_NotifyChange_new_value_1_1
00FA 5100      00468         MOVF    _ENC_NotifyChange_new_value_1_1, W, B
00FC 6E00      00469         MOVWF   r0x03
00FE C000 FFE1 00470         MOVFF   r0x00, FSR0L
0102 C000 FFE2 00471         MOVFF   r0x02, FSR0H
0106 C000 FFE7 00472         MOVFF   r0x03, INDF0
               00473         .line   691; main.c     break;
010A EF00 F000 00474         GOTO    _00636_DS_
010E           00475 _00577_DS_:
010E 0000      00476         BANKSEL (_all_param + 4)
               00477         .line   694; main.c     if( all_param.router_flags_lfo1_dec.ALL_flags_lfo1_dec & all_param.eg_select ){
0110 5100      00478         MOVF    (_all_param + 4), W, B
0112 0BFF      00479         ANDLW   0xff
0114 6E00      00480         MOVWF   r0x00
               00481 ; removed redundant BANKSEL
0116 5100      00482         MOVF    (_all_param + 38), W, B
0118 1600      00483         ANDWF   r0x00, F
011A 5000      00484         MOVF    r0x00, W
011C A4D8      00485         BTFSS   STATUS, 2
011E EF00 F000 00486         GOTO    _00636_DS_
gpasm-0.13.6 beta               _output/main__mios-gpasm-tmp.asm7-10-2008  15:16:01          PAGE 10


LOC  OBJECT CODE     LINE SOURCE TEXT
  VALUE
 
               00487         .line   696; main.c     new_value = (unsigned int)all_param.decay[eg_select_hlp];
0122 C000 F000 00488         MOVFF   _eg_select_hlp, r0x00
0126 6A00      00489         CLRF    r0x02
0128 0E00      00490         MOVLW   LOW(_all_param + 20)
012A 2600      00491         ADDWF   r0x00, F
012C 0E00      00492         MOVLW   HIGH(_all_param + 20)
012E 2200      00493         ADDWFC  r0x02, F
0130 C000 FFE1 00494         MOVFF   r0x00, FSR0L
0134 C000 FFE2 00495         MOVFF   r0x02, FSR0H
0138 CFE7 F000 00496         MOVFF   INDF0, r0x00
013C C000 F000 00497         MOVFF   r0x00, _ENC_NotifyChange_new_value_1_1
0140 0000      00498         BANKSEL (_ENC_NotifyChange_new_value_1_1 + 1)
0142 6B00      00499         CLRF    (_ENC_NotifyChange_new_value_1_1 + 1), B
               00500         .line   697; main.c     if( MIOS_HLP_16bitAddSaturate(incrementer, &new_value, 0xff) ) {
0144 0E00      00501         MOVLW   HIGH(_ENC_NotifyChange_new_value_1_1)
0146 6E00      00502         MOVWF   r0x02
0148 0E00      00503         MOVLW   LOW(_ENC_NotifyChange_new_value_1_1)
014A 6E00      00504         MOVWF   r0x00
014C 0E80      00505         MOVLW   0x80
014E 6E00      00506         MOVWF   r0x03
0150 0E00      00507         MOVLW   0x00
0152 6EED      00508         MOVWF   POSTDEC1
0154 0EFF      00509         MOVLW   0xff
0156 6EED      00510         MOVWF   POSTDEC1
0158 5000      00511         MOVF    r0x03, W
015A 6EED      00512         MOVWF   POSTDEC1
015C 5000      00513         MOVF    r0x02, W
015E 6EED      00514         MOVWF   POSTDEC1
0160 5000      00515         MOVF    r0x00, W
0162 6EED      00516         MOVWF   POSTDEC1
0164 5000      00517         MOVF    r0x01, W
0166 EC00 F000 00518         CALL    _MIOS_HLP_16bitAddSaturate
016A 6E00      00519         MOVWF   r0x00
016C 0E05      00520         MOVLW   0x05
016E 26E9      00521         ADDWF   FSR1L, F
0170 5000      00522         MOVF    r0x00, W
0172 B4D8      00523         BTFSC   STATUS, 2
0174 EF00 F000 00524         GOTO    _00636_DS_
               00525         .line   698; main.c     all_param.decay[eg_select_hlp] = (unsigned char)new_value;}
0178 C000 F000 00526         MOVFF   _eg_select_hlp, r0x00
017C 6A00      00527         CLRF    r0x02
017E 0E00      00528         MOVLW   LOW(_all_param + 20)
0180 2600      00529         ADDWF   r0x00, F
0182 0E00      00530         MOVLW   HIGH(_all_param + 20)
0184 2200      00531         ADDWFC  r0x02, F
0186 0000      00532         BANKSEL _ENC_NotifyChange_new_value_1_1
0188 5100      00533         MOVF    _ENC_NotifyChange_new_value_1_1, W, B
018A 6E00      00534         MOVWF   r0x03
018C C000 FFE1 00535         MOVFF   r0x00, FSR0L
0190 C000 FFE2 00536         MOVFF   r0x02, FSR0H
0194 C000 FFE7 00537         MOVFF   r0x03, INDF0
               00538         .line   699; main.c     break;
0198 EF00 F000 00539         GOTO    _00636_DS_
019C           00540 _00582_DS_:
gpasm-0.13.6 beta               _output/main__mios-gpasm-tmp.asm7-10-2008  15:16:01          PAGE 11


LOC  OBJECT CODE     LINE SOURCE TEXT
  VALUE
 
               00541         .line   702; main.c     new_value = (unsigned int)all_param.sustain[eg_select_hlp];
019C C000 F000 00542         MOVFF   _eg_select_hlp, r0x00
01A0 6A00      00543         CLRF    r0x02
01A2 0E00      00544         MOVLW   LOW(_all_param + 24)
01A4 2600      00545         ADDWF   r0x00, F
01A6 0E00      00546         MOVLW   HIGH(_all_param + 24)
01A8 2200      00547         ADDWFC  r0x02, F
01AA C000 FFE1 00548         MOVFF   r0x00, FSR0L
01AE C000 FFE2 00549         MOVFF   r0x02, FSR0H
01B2 CFE7 F000 00550         MOVFF   INDF0, r0x00
01B6 C000 F000 00551         MOVFF   r0x00, _ENC_NotifyChange_new_value_1_1
01BA 0000      00552         BANKSEL (_ENC_NotifyChange_new_value_1_1 + 1)
01BC 6B00      00553         CLRF    (_ENC_NotifyChange_new_value_1_1 + 1), B
               00554         .line   703; main.c     if( MIOS_HLP_16bitAddSaturate(incrementer, &new_value, 0xff) ) {
01BE 0E00      00555         MOVLW   HIGH(_ENC_NotifyChange_new_value_1_1)
01C0 6E00      00556         MOVWF   r0x02
01C2 0E00      00557         MOVLW   LOW(_ENC_NotifyChange_new_value_1_1)
01C4 6E00      00558         MOVWF   r0x00
01C6 0E80      00559         MOVLW   0x80
01C8 6E00      00560         MOVWF   r0x03
01CA 0E00      00561         MOVLW   0x00
01CC 6EED      00562         MOVWF   POSTDEC1
01CE 0EFF      00563         MOVLW   0xff
01D0 6EED      00564         MOVWF   POSTDEC1
01D2 5000      00565         MOVF    r0x03, W
01D4 6EED      00566         MOVWF   POSTDEC1
01D6 5000      00567         MOVF    r0x02, W
01D8 6EED      00568         MOVWF   POSTDEC1
01DA 5000      00569         MOVF    r0x00, W
01DC 6EED      00570         MOVWF   POSTDEC1
01DE 5000      00571         MOVF    r0x01, W
01E0 EC00 F000 00572         CALL    _MIOS_HLP_16bitAddSaturate
01E4 6E00      00573         MOVWF   r0x00
01E6 0E05      00574         MOVLW   0x05
01E8 26E9      00575         ADDWF   FSR1L, F
01EA 5000      00576         MOVF    r0x00, W
01EC B4D8      00577         BTFSC   STATUS, 2
01EE EF00 F000 00578         GOTO    _00636_DS_
               00579         .line   704; main.c     all_param.sustain[eg_select_hlp] = (unsigned char)new_value;}
01F2 C000 F000 00580         MOVFF   _eg_select_hlp, r0x00
01F6 6A00      00581         CLRF    r0x02
01F8 0E00      00582         MOVLW   LOW(_all_param + 24)
01FA 2600      00583         ADDWF   r0x00, F
01FC 0E00      00584         MOVLW   HIGH(_all_param + 24)
01FE 2200      00585         ADDWFC  r0x02, F
0200 0000      00586         BANKSEL _ENC_NotifyChange_new_value_1_1
0202 5100      00587         MOVF    _ENC_NotifyChange_new_value_1_1, W, B
0204 6E00      00588         MOVWF   r0x03
0206 C000 FFE1 00589         MOVFF   r0x00, FSR0L
020A C000 FFE2 00590         MOVFF   r0x02, FSR0H
020E C000 FFE7 00591         MOVFF   r0x03, INDF0
               00592         .line   705; main.c     break;
0212 EF00 F000 00593         GOTO    _00636_DS_
0216           00594 _00585_DS_:
gpasm-0.13.6 beta               _output/main__mios-gpasm-tmp.asm7-10-2008  15:16:01          PAGE 12


LOC  OBJECT CODE     LINE SOURCE TEXT
  VALUE
 
               00595         .line   708; main.c     new_value = (unsigned int)all_param.release[eg_select_hlp];
0216 C000 F000 00596         MOVFF   _eg_select_hlp, r0x00
021A 6A00      00597         CLRF    r0x02
021C 0E00      00598         MOVLW   LOW(_all_param + 28)
021E 2600      00599         ADDWF   r0x00, F
0220 0E00      00600         MOVLW   HIGH(_all_param + 28)
0222 2200      00601         ADDWFC  r0x02, F
0224 C000 FFE1 00602         MOVFF   r0x00, FSR0L
0228 C000 FFE2 00603         MOVFF   r0x02, FSR0H
022C CFE7 F000 00604         MOVFF   INDF0, r0x00
0230 C000 F000 00605         MOVFF   r0x00, _ENC_NotifyChange_new_value_1_1
0234 0000      00606         BANKSEL (_ENC_NotifyChange_new_value_1_1 + 1)
0236 6B00      00607         CLRF    (_ENC_NotifyChange_new_value_1_1 + 1), B
               00608         .line   709; main.c     if( MIOS_HLP_16bitAddSaturate(incrementer, &new_value, 0xff) ) {
0238 0E00      00609         MOVLW   HIGH(_ENC_NotifyChange_new_value_1_1)
023A 6E00      00610         MOVWF   r0x02
023C 0E00      00611         MOVLW   LOW(_ENC_NotifyChange_new_value_1_1)
023E 6E00      00612         MOVWF   r0x00
0240 0E80      00613         MOVLW   0x80
0242 6E00      00614         MOVWF   r0x03
0244 0E00      00615         MOVLW   0x00
0246 6EED      00616         MOVWF   POSTDEC1
0248 0EFF      00617         MOVLW   0xff
024A 6EED      00618         MOVWF   POSTDEC1
024C 5000      00619         MOVF    r0x03, W
024E 6EED      00620         MOVWF   POSTDEC1
0250 5000      00621         MOVF    r0x02, W
0252 6EED      00622         MOVWF   POSTDEC1
0254 5000      00623         MOVF    r0x00, W
0256 6EED      00624         MOVWF   POSTDEC1
0258 5000      00625         MOVF    r0x01, W
025A EC00 F000 00626         CALL    _MIOS_HLP_16bitAddSaturate
025E 6E00      00627         MOVWF   r0x00
0260 0E05      00628         MOVLW   0x05
0262 26E9      00629         ADDWF   FSR1L, F
0264 5000      00630         MOVF    r0x00, W
0266 B4D8      00631         BTFSC   STATUS, 2
0268 EF00 F000 00632         GOTO    _00636_DS_
               00633         .line   710; main.c     all_param.release[eg_select_hlp] = (unsigned char)new_value;}
026C C000 F000 00634         MOVFF   _eg_select_hlp, r0x00
0270 6A00      00635         CLRF    r0x02
0272 0E00      00636         MOVLW   LOW(_all_param + 28)
0274 2600      00637         ADDWF   r0x00, F
0276 0E00      00638         MOVLW   HIGH(_all_param + 28)
0278 2200      00639         ADDWFC  r0x02, F
027A 0000      00640         BANKSEL _ENC_NotifyChange_new_value_1_1
027C 5100      00641         MOVF    _ENC_NotifyChange_new_value_1_1, W, B
027E 6E00      00642         MOVWF   r0x03
0280 C000 FFE1 00643         MOVFF   r0x00, FSR0L
0284 C000 FFE2 00644         MOVFF   r0x02, FSR0H
0288 C000 FFE7 00645         MOVFF   r0x03, INDF0
               00646         .line   711; main.c     break;
028C EF00 F000 00647         GOTO    _00636_DS_
0290           00648 _00588_DS_:
gpasm-0.13.6 beta               _output/main__mios-gpasm-tmp.asm7-10-2008  15:16:01          PAGE 13


LOC  OBJECT CODE     LINE SOURCE TEXT
  VALUE
 
0290 0000      00649         BANKSEL _CursorBpm
               00650         .line   715; main.c     if (CursorBpm) {
0292 5100      00651         MOVF    _CursorBpm, W, B
0294 E000      00652         BZ      _00605_DS_
               00653         .line   716; main.c     jog_value = all_param.bpm;
0296 C000 F000 00654         MOVFF   (_all_param + 39), _jog_value
029A 0000      00655         BANKSEL (_jog_value + 1)
029C 6B00      00656         CLRF    (_jog_value + 1), B
               00657         .line   717; main.c     if( MIOS_HLP_16bitAddSaturate(incrementer, &jog_value, 255) ) {
029E 0E00      00658         MOVLW   HIGH(_jog_value)
02A0 6E00      00659         MOVWF   r0x02
02A2 0E00      00660         MOVLW   LOW(_jog_value)
02A4 6E00      00661         MOVWF   r0x00
02A6 0E80      00662         MOVLW   0x80
02A8 6E00      00663         MOVWF   r0x03
02AA 0E00      00664         MOVLW   0x00
02AC 6EED      00665         MOVWF   POSTDEC1
02AE 0EFF      00666         MOVLW   0xff
02B0 6EED      00667         MOVWF   POSTDEC1
02B2 5000      00668         MOVF    r0x03, W
02B4 6EED      00669         MOVWF   POSTDEC1
02B6 5000      00670         MOVF    r0x02, W
02B8 6EED      00671         MOVWF   POSTDEC1
02BA 5000      00672         MOVF    r0x00, W
02BC 6EED      00673         MOVWF   POSTDEC1
02BE 5000      00674         MOVF    r0x01, W
02C0 EC00 F000 00675         CALL    _MIOS_HLP_16bitAddSaturate
02C4 6E00      00676         MOVWF   r0x00
02C6 0E05      00677         MOVLW   0x05
02C8 26E9      00678         ADDWF   FSR1L, F
02CA 5000      00679         MOVF    r0x00, W
02CC B4D8      00680         BTFSC   STATUS, 2
02CE D000      00681         BRA     _00636_DS_
02D0 0000      00682         BANKSEL _jog_value
               00683         .line   718; main.c     all_param.bpm = jog_value;
02D2 5100      00684         MOVF    _jog_value, W, B
02D4 6E00      00685         MOVWF   r0x00
02D6 5000      00686         MOVF    r0x00, W
02D8 0000      00687         BANKSEL (_all_param + 39)
02DA 6F00      00688         MOVWF   (_all_param + 39), B
02DC 0000      00689         BANKSEL _app_flags
               00690         .line   719; main.c     app_flags.DISPLAY_UPDATE_REQ = 1;       }}
02DE 8500      00691         BSF     _app_flags, 2, B
02E0 D000      00692         BRA     _00636_DS_
02E2           00693 _00605_DS_:
               00694         .line   723; main.c     switch( eg_select_hlp ) {
02E2 C000 F000 00695         MOVFF   _eg_select_hlp, r0x00
02E6 0E04      00696         MOVLW   0x04
02E8 5C00      00697         SUBWF   r0x00, W
02EA B0D8      00698         BTFSC   STATUS, 0
02EC D000      00699         BRA     _00636_DS_
02EE C000 FFED 00700         MOVFF   r0x04, POSTDEC1
02F2 C000 FFED 00701         MOVFF   r0x05, POSTDEC1
02F6 6A00      00702         CLRF    r0x05
gpasm-0.13.6 beta               _output/main__mios-gpasm-tmp.asm7-10-2008  15:16:01          PAGE 14


LOC  OBJECT CODE     LINE SOURCE TEXT
  VALUE
 
02F8 3400      00703         RLCF    r0x00, W
02FA 3600      00704         RLCF    r0x05, F
02FC 34E8      00705         RLCF    WREG, W
02FE 3600      00706         RLCF    r0x05, F
0300 0BFC      00707         ANDLW   0xfc
0302 6E00      00708         MOVWF   r0x04
0304 0E00      00709         MOVLW   UPPER(_00666_DS_)
0306 6EFB      00710         MOVWF   PCLATU
0308 0E00      00711         MOVLW   HIGH(_00666_DS_)
030A 6EFA      00712         MOVWF   PCLATH
030C 0E00      00713         MOVLW   LOW(_00666_DS_)
030E 2600      00714         ADDWF   r0x04, F
0310 5000      00715         MOVF    r0x05, W
0312 22FA      00716         ADDWFC  PCLATH, F
0314 B0D8      00717         BTFSC   STATUS, 0
0316 2AFB      00718         INCF    PCLATU, F
0318 5000      00719         MOVF    r0x04, W
031A CFEC F000 00720         MOVFF   PREINC1, r0x05
031E CFEC F000 00721         MOVFF   PREINC1, r0x04
0322 6EF9      00722         MOVWF   PCL
0324           00723 _00666_DS_:
0324 EF00 F000 00724         GOTO    _00591_DS_
0328 EF00 F000 00725         GOTO    _00594_DS_
032C EF00 F000 00726         GOTO    _00597_DS_
0330 EF00 F000 00727         GOTO    _00600_DS_
0334           00728 _00591_DS_:
               00729         .line   725; main.c     jog_value = all_param.eg_channel[0];
0334 C000 F000 00730         MOVFF   (_all_param + 12), _jog_value
0338 0000      00731         BANKSEL (_jog_value + 1)
033A 6B00      00732         CLRF    (_jog_value + 1), B
               00733         .line   726; main.c     if( MIOS_HLP_16bitAddSaturate(incrementer, &jog_value, 0x0f) ) {
033C 0E00      00734         MOVLW   HIGH(_jog_value)
033E 6E00      00735         MOVWF   r0x02
0340 0E00      00736         MOVLW   LOW(_jog_value)
0342 6E00      00737         MOVWF   r0x00
0344 0E80      00738         MOVLW   0x80
0346 6E00      00739         MOVWF   r0x03
0348 0E00      00740         MOVLW   0x00
034A 6EED      00741         MOVWF   POSTDEC1
034C 0E0F      00742         MOVLW   0x0f
034E 6EED      00743         MOVWF   POSTDEC1
0350 5000      00744         MOVF    r0x03, W
0352 6EED      00745         MOVWF   POSTDEC1
0354 5000      00746         MOVF    r0x02, W
0356 6EED      00747         MOVWF   POSTDEC1
0358 5000      00748         MOVF    r0x00, W
035A 6EED      00749         MOVWF   POSTDEC1
035C 5000      00750         MOVF    r0x01, W
035E EC00 F000 00751         CALL    _MIOS_HLP_16bitAddSaturate
0362 6E00      00752         MOVWF   r0x00
0364 0E05      00753         MOVLW   0x05
0366 26E9      00754         ADDWF   FSR1L, F
0368 5000      00755         MOVF    r0x00, W
036A B4D8      00756         BTFSC   STATUS, 2
gpasm-0.13.6 beta               _output/main__mios-gpasm-tmp.asm7-10-2008  15:16:01          PAGE 15


LOC  OBJECT CODE     LINE SOURCE TEXT
  VALUE
 
036C D000      00757         BRA     _00636_DS_
036E 0000      00758         BANKSEL _jog_value
               00759         .line   727; main.c     all_param.eg_channel[0] = jog_value;
0370 5100      00760         MOVF    _jog_value, W, B
0372 6E00      00761         MOVWF   r0x00
0374 5000      00762         MOVF    r0x00, W
0376 0000      00763         BANKSEL (_all_param + 12)
0378 6F00      00764         MOVWF   (_all_param + 12), B
037A 0000      00765         BANKSEL _app_flags
               00766         .line   728; main.c     app_flags.DISPLAY_UPDATE_REQ = 1;}
037C 8500      00767         BSF     _app_flags, 2, B
               00768         .line   729; main.c     break;
037E D000      00769         BRA     _00636_DS_
0380           00770 _00594_DS_:
               00771         .line   732; main.c     jog_value = all_param.eg_channel[1];
0380 C000 F000 00772         MOVFF   (_all_param + 13), (iTemp109 + 1)
0384 C000 F000 00773         MOVFF   (iTemp109 + 1), _jog_value
0388 0000      00774         BANKSEL (_jog_value + 1)
038A 6B00      00775         CLRF    (_jog_value + 1), B
               00776         .line   733; main.c     if( MIOS_HLP_16bitAddSaturate(incrementer, &jog_value, 0x0f) ) {
038C 0E00      00777         MOVLW   HIGH(_jog_value)
038E 6E00      00778         MOVWF   r0x02
0390 0E00      00779         MOVLW   LOW(_jog_value)
0392 6E00      00780         MOVWF   r0x00
0394 0E80      00781         MOVLW   0x80
0396 6E00      00782         MOVWF   r0x03
0398 0E00      00783         MOVLW   0x00
039A 6EED      00784         MOVWF   POSTDEC1
039C 0E0F      00785         MOVLW   0x0f
039E 6EED      00786         MOVWF   POSTDEC1
03A0 5000      00787         MOVF    r0x03, W
03A2 6EED      00788         MOVWF   POSTDEC1
03A4 5000      00789         MOVF    r0x02, W
03A6 6EED      00790         MOVWF   POSTDEC1
03A8 5000      00791         MOVF    r0x00, W
03AA 6EED      00792         MOVWF   POSTDEC1
03AC 5000      00793         MOVF    r0x01, W
03AE EC00 F000 00794         CALL    _MIOS_HLP_16bitAddSaturate
03B2 6E00      00795         MOVWF   r0x00
03B4 0E05      00796         MOVLW   0x05
03B6 26E9      00797         ADDWF   FSR1L, F
03B8 5000      00798         MOVF    r0x00, W
03BA B4D8      00799         BTFSC   STATUS, 2
03BC D000      00800         BRA     _00636_DS_
03BE 0000      00801         BANKSEL _jog_value
               00802         .line   734; main.c     all_param.eg_channel[1] = jog_value;
03C0 5100      00803         MOVF    _jog_value, W, B
03C2 6E00      00804         MOVWF   r0x00
03C4 5000      00805         MOVF    r0x00, W
03C6 0000      00806         BANKSEL (_all_param + 13)
03C8 6F00      00807         MOVWF   (_all_param + 13), B
03CA 0000      00808         BANKSEL _app_flags
               00809         .line   735; main.c     app_flags.DISPLAY_UPDATE_REQ = 1;}
03CC 8500      00810         BSF     _app_flags, 2, B
gpasm-0.13.6 beta               _output/main__mios-gpasm-tmp.asm7-10-2008  15:16:01          PAGE 16


LOC  OBJECT CODE     LINE SOURCE TEXT
  VALUE
 
               00811         .line   736; main.c     break;
03CE D000      00812         BRA     _00636_DS_
03D0           00813 _00597_DS_:
               00814         .line   739; main.c     jog_value = all_param.eg_channel[2];
03D0 C000 F000 00815         MOVFF   (_all_param + 14), (iTemp124 + 2)
03D4 C000 F000 00816         MOVFF   (iTemp124 + 2), _jog_value
03D8 0000      00817         BANKSEL (_jog_value + 1)
03DA 6B00      00818         CLRF    (_jog_value + 1), B
               00819         .line   740; main.c     if( MIOS_HLP_16bitAddSaturate(incrementer, &jog_value, 0x0f) ) {
03DC 0E00      00820         MOVLW   HIGH(_jog_value)
03DE 6E00      00821         MOVWF   r0x02
03E0 0E00      00822         MOVLW   LOW(_jog_value)
03E2 6E00      00823         MOVWF   r0x00
03E4 0E80      00824         MOVLW   0x80
03E6 6E00      00825         MOVWF   r0x03
03E8 0E00      00826         MOVLW   0x00
03EA 6EED      00827         MOVWF   POSTDEC1
03EC 0E0F      00828         MOVLW   0x0f
03EE 6EED      00829         MOVWF   POSTDEC1
03F0 5000      00830         MOVF    r0x03, W
03F2 6EED      00831         MOVWF   POSTDEC1
03F4 5000      00832         MOVF    r0x02, W
03F6 6EED      00833         MOVWF   POSTDEC1
03F8 5000      00834         MOVF    r0x00, W
03FA 6EED      00835         MOVWF   POSTDEC1
03FC 5000      00836         MOVF    r0x01, W
03FE EC00 F000 00837         CALL    _MIOS_HLP_16bitAddSaturate
0402 6E00      00838         MOVWF   r0x00
0404 0E05      00839         MOVLW   0x05
0406 26E9      00840         ADDWF   FSR1L, F
0408 5000      00841         MOVF    r0x00, W
040A B4D8      00842         BTFSC   STATUS, 2
040C D000      00843         BRA     _00636_DS_
040E 0000      00844         BANKSEL _jog_value
               00845         .line   741; main.c     all_param.eg_channel[2] = jog_value;
0410 5100      00846         MOVF    _jog_value, W, B
0412 6E00      00847         MOVWF   r0x00
0414 5000      00848         MOVF    r0x00, W
0416 0000      00849         BANKSEL (_all_param + 14)
0418 6F00      00850         MOVWF   (_all_param + 14), B
041A 0000      00851         BANKSEL _app_flags
               00852         .line   742; main.c     app_flags.DISPLAY_UPDATE_REQ = 1;}
041C 8500      00853         BSF     _app_flags, 2, B
               00854         .line   743; main.c     break;
041E D000      00855         BRA     _00636_DS_
0420           00856 _00600_DS_:
               00857         .line   746; main.c     jog_value = all_param.eg_channel[3];
0420 C000 F000 00858         MOVFF   (_all_param + 15), (iTemp139 + 3)
0424 C000 F000 00859         MOVFF   (iTemp139 + 3), _jog_value
0428 0000      00860         BANKSEL (_jog_value + 1)
042A 6B00      00861         CLRF    (_jog_value + 1), B
               00862         .line   747; main.c     if( MIOS_HLP_16bitAddSaturate(incrementer, &jog_value, 0x0f) ) {
042C 0E00      00863         MOVLW   HIGH(_jog_value)
042E 6E00      00864         MOVWF   r0x02
gpasm-0.13.6 beta               _output/main__mios-gpasm-tmp.asm7-10-2008  15:16:01          PAGE 17


LOC  OBJECT CODE     LINE SOURCE TEXT
  VALUE
 
0430 0E00      00865         MOVLW   LOW(_jog_value)
0432 6E00      00866         MOVWF   r0x00
0434 0E80      00867         MOVLW   0x80
0436 6E00      00868         MOVWF   r0x03
0438 0E00      00869         MOVLW   0x00
043A 6EED      00870         MOVWF   POSTDEC1
043C 0E0F      00871         MOVLW   0x0f
043E 6EED      00872         MOVWF   POSTDEC1
0440 5000      00873         MOVF    r0x03, W
0442 6EED      00874         MOVWF   POSTDEC1
0444 5000      00875         MOVF    r0x02, W
0446 6EED      00876         MOVWF   POSTDEC1
0448 5000      00877         MOVF    r0x00, W
044A 6EED      00878         MOVWF   POSTDEC1
044C 5000      00879         MOVF    r0x01, W
044E EC00 F000 00880         CALL    _MIOS_HLP_16bitAddSaturate
0452 6E00      00881         MOVWF   r0x00
0454 0E05      00882         MOVLW   0x05
0456 26E9      00883         ADDWF   FSR1L, F
0458 5000      00884         MOVF    r0x00, W
045A B4D8      00885         BTFSC   STATUS, 2
045C D000      00886         BRA     _00636_DS_
045E 0000      00887         BANKSEL _jog_value
               00888         .line   748; main.c     all_param.eg_channel[3] = jog_value;
0460 5100      00889         MOVF    _jog_value, W, B
0462 6E00      00890         MOVWF   r0x00
0464 5000      00891         MOVF    r0x00, W
0466 0000      00892         BANKSEL (_all_param + 15)
0468 6F00      00893         MOVWF   (_all_param + 15), B
046A 0000      00894         BANKSEL _app_flags
               00895         .line   749; main.c     app_flags.DISPLAY_UPDATE_REQ = 1;}
046C 8500      00896         BSF     _app_flags, 2, B
               00897         .line   751; main.c     break;
046E D000      00898         BRA     _00636_DS_
0470           00899 _00607_DS_:
0470 0000      00900         BANKSEL _all_param
               00901         .line   756; main.c     if(all_param.router_flags_lfo1.lfo1_from_lfo2) {
0472 B900      00902         BTFSC   _all_param, 4, B
0474 D000      00903         BRA     _00636_DS_
               00904 ; removed redundant BANKSEL
               00905         .line   759; main.c     if( all_param.router_flags_lfo1.lfo1_sync_bpm ) {
0476 AD00      00906         BTFSS   _all_param, 6, B
0478 D000      00907         BRA     _00615_DS_
               00908         .line   761; main.c     new_value = all_param.lfo0_bpm;
047A C000 F000 00909         MOVFF   (_all_param + 35), _ENC_NotifyChange_new_value_1_1
047E 0000      00910         BANKSEL (_ENC_NotifyChange_new_value_1_1 + 1)
0480 6B00      00911         CLRF    (_ENC_NotifyChange_new_value_1_1 + 1), B
               00912         .line   762; main.c     if( MIOS_HLP_16bitAddSaturate(incrementer, &new_value, 0x0a) ) {
0482 0E00      00913         MOVLW   HIGH(_ENC_NotifyChange_new_value_1_1)
0484 6E00      00914         MOVWF   r0x02
0486 0E00      00915         MOVLW   LOW(_ENC_NotifyChange_new_value_1_1)
0488 6E00      00916         MOVWF   r0x00
048A 0E80      00917         MOVLW   0x80
048C 6E00      00918         MOVWF   r0x03
gpasm-0.13.6 beta               _output/main__mios-gpasm-tmp.asm7-10-2008  15:16:01          PAGE 18


LOC  OBJECT CODE     LINE SOURCE TEXT
  VALUE
 
048E 0E00      00919         MOVLW   0x00
0490 6EED      00920         MOVWF   POSTDEC1
0492 0E0A      00921         MOVLW   0x0a
0494 6EED      00922         MOVWF   POSTDEC1
0496 5000      00923         MOVF    r0x03, W
0498 6EED      00924         MOVWF   POSTDEC1
049A 5000      00925         MOVF    r0x02, W
049C 6EED      00926         MOVWF   POSTDEC1
049E 5000      00927         MOVF    r0x00, W
04A0 6EED      00928         MOVWF   POSTDEC1
04A2 5000      00929         MOVF    r0x01, W
04A4 EC00 F000 00930         CALL    _MIOS_HLP_16bitAddSaturate
04A8 6E00      00931         MOVWF   r0x00
04AA 0E05      00932         MOVLW   0x05
04AC 26E9      00933         ADDWF   FSR1L, F
04AE 5000      00934         MOVF    r0x00, W
04B0 B4D8      00935         BTFSC   STATUS, 2
04B2 D000      00936         BRA     _00636_DS_
04B4 0000      00937         BANKSEL _ENC_NotifyChange_new_value_1_1
               00938         .line   763; main.c     all_param.lfo0_bpm = new_value;
04B6 5100      00939         MOVF    _ENC_NotifyChange_new_value_1_1, W, B
04B8 6E00      00940         MOVWF   r0x00
04BA 5000      00941         MOVF    r0x00, W
04BC 0000      00942         BANKSEL (_all_param + 35)
04BE 6F00      00943         MOVWF   (_all_param + 35), B
04C0 0000      00944         BANKSEL _app_flags
               00945         .line   764; main.c     app_flags.DISPLAY_UPDATE_REQ = 1;}
04C2 8500      00946         BSF     _app_flags, 2, B
               00947         .line   765; main.c     break; }
04C4 D000      00948         BRA     _00636_DS_
04C6           00949 _00615_DS_:
               00950         .line   767; main.c     new_value = all_param.lfo0_rate;
04C6 C000 F000 00951         MOVFF   (_all_param + 32), _ENC_NotifyChange_new_value_1_1
04CA 0000      00952         BANKSEL (_ENC_NotifyChange_new_value_1_1 + 1)
04CC 6B00      00953         CLRF    (_ENC_NotifyChange_new_value_1_1 + 1), B
               00954         .line   768; main.c     if( MIOS_HLP_16bitAddSaturate(incrementer, &new_value, 0xff) ) {
04CE 0E00      00955         MOVLW   HIGH(_ENC_NotifyChange_new_value_1_1)
04D0 6E00      00956         MOVWF   r0x02
04D2 0E00      00957         MOVLW   LOW(_ENC_NotifyChange_new_value_1_1)
04D4 6E00      00958         MOVWF   r0x00
04D6 0E80      00959         MOVLW   0x80
04D8 6E00      00960         MOVWF   r0x03
04DA 0E00      00961         MOVLW   0x00
04DC 6EED      00962         MOVWF   POSTDEC1
04DE 0EFF      00963         MOVLW   0xff
04E0 6EED      00964         MOVWF   POSTDEC1
04E2 5000      00965         MOVF    r0x03, W
04E4 6EED      00966         MOVWF   POSTDEC1
04E6 5000      00967         MOVF    r0x02, W
04E8 6EED      00968         MOVWF   POSTDEC1
04EA 5000      00969         MOVF    r0x00, W
04EC 6EED      00970         MOVWF   POSTDEC1
04EE 5000      00971         MOVF    r0x01, W
04F0 EC00 F000 00972         CALL    _MIOS_HLP_16bitAddSaturate
gpasm-0.13.6 beta               _output/main__mios-gpasm-tmp.asm7-10-2008  15:16:01          PAGE 19


LOC  OBJECT CODE     LINE SOURCE TEXT
  VALUE
 
04F4 6E00      00973         MOVWF   r0x00
04F6 0E05      00974         MOVLW   0x05
04F8 26E9      00975         ADDWF   FSR1L, F
04FA 5000      00976         MOVF    r0x00, W
04FC B4D8      00977         BTFSC   STATUS, 2
04FE D000      00978         BRA     _00636_DS_
0500 0000      00979         BANKSEL _ENC_NotifyChange_new_value_1_1
               00980         .line   769; main.c     all_param.lfo0_rate = new_value;} }
0502 5100      00981         MOVF    _ENC_NotifyChange_new_value_1_1, W, B
0504 6E00      00982         MOVWF   r0x00
0506 5000      00983         MOVF    r0x00, W
0508 0000      00984         BANKSEL (_all_param + 32)
050A 6F00      00985         MOVWF   (_all_param + 32), B
               00986         .line   770; main.c     break;
050C D000      00987         BRA     _00636_DS_
050E           00988 _00617_DS_:
050E 0000      00989         BANKSEL (_all_param + 1)
               00990         .line   773; main.c     if(all_param.router_flags_lfo2.lfo2_from_lfo3) {
0510 B900      00991         BTFSC   (_all_param + 1), 4, B
0512 D000      00992         BRA     _00636_DS_
               00993 ; removed redundant BANKSEL
               00994         .line   776; main.c     if( all_param.router_flags_lfo2.lfo2_sync_bpm ) {
0514 AD00      00995         BTFSS   (_all_param + 1), 6, B
0516 D000      00996         BRA     _00625_DS_
               00997         .line   777; main.c     new_value = all_param.lfo1_bpm;
0518 C000 F000 00998         MOVFF   (_all_param + 36), _ENC_NotifyChange_new_value_1_1
051C 0000      00999         BANKSEL (_ENC_NotifyChange_new_value_1_1 + 1)
051E 6B00      01000         CLRF    (_ENC_NotifyChange_new_value_1_1 + 1), B
               01001         .line   778; main.c     if( MIOS_HLP_16bitAddSaturate(incrementer, &new_value, 0x0a) ) {
0520 0E00      01002         MOVLW   HIGH(_ENC_NotifyChange_new_value_1_1)
0522 6E00      01003         MOVWF   r0x02
0524 0E00      01004         MOVLW   LOW(_ENC_NotifyChange_new_value_1_1)
0526 6E00      01005         MOVWF   r0x00
0528 0E80      01006         MOVLW   0x80
052A 6E00      01007         MOVWF   r0x03
052C 0E00      01008         MOVLW   0x00
052E 6EED      01009         MOVWF   POSTDEC1
0530 0E0A      01010         MOVLW   0x0a
0532 6EED      01011         MOVWF   POSTDEC1
0534 5000      01012         MOVF    r0x03, W
0536 6EED      01013         MOVWF   POSTDEC1
0538 5000      01014         MOVF    r0x02, W
053A 6EED      01015         MOVWF   POSTDEC1
053C 5000      01016         MOVF    r0x00, W
053E 6EED      01017         MOVWF   POSTDEC1
0540 5000      01018         MOVF    r0x01, W
0542 EC00 F000 01019         CALL    _MIOS_HLP_16bitAddSaturate
0546 6E00      01020         MOVWF   r0x00
0548 0E05      01021         MOVLW   0x05
054A 26E9      01022         ADDWF   FSR1L, F
054C 5000      01023         MOVF    r0x00, W
054E B4D8      01024         BTFSC   STATUS, 2
0550 D000      01025         BRA     _00636_DS_
0552 0000      01026         BANKSEL _ENC_NotifyChange_new_value_1_1
gpasm-0.13.6 beta               _output/main__mios-gpasm-tmp.asm7-10-2008  15:16:01          PAGE 20


LOC  OBJECT CODE     LINE SOURCE TEXT
  VALUE
 
               01027         .line   779; main.c     all_param.lfo1_bpm = new_value;
0554 5100      01028         MOVF    _ENC_NotifyChange_new_value_1_1, W, B
0556 6E00      01029         MOVWF   r0x00
0558 5000      01030         MOVF    r0x00, W
055A 0000      01031         BANKSEL (_all_param + 36)
055C 6F00      01032         MOVWF   (_all_param + 36), B
055E 0000      01033         BANKSEL _app_flags
               01034         .line   780; main.c     app_flags.DISPLAY_UPDATE_REQ = 1;}
0560 8500      01035         BSF     _app_flags, 2, B
               01036         .line   781; main.c     break; }
0562 D000      01037         BRA     _00636_DS_
0564           01038 _00625_DS_:
               01039         .line   783; main.c     new_value = all_param.lfo1_rate;
0564 C000 F000 01040         MOVFF   (_all_param + 33), _ENC_NotifyChange_new_value_1_1
0568 0000      01041         BANKSEL (_ENC_NotifyChange_new_value_1_1 + 1)
056A 6B00      01042         CLRF    (_ENC_NotifyChange_new_value_1_1 + 1), B
               01043         .line   784; main.c     if( MIOS_HLP_16bitAddSaturate(incrementer, &new_value, 0xff) ) {
056C 0E00      01044         MOVLW   HIGH(_ENC_NotifyChange_new_value_1_1)
056E 6E00      01045         MOVWF   r0x02
0570 0E00      01046         MOVLW   LOW(_ENC_NotifyChange_new_value_1_1)
0572 6E00      01047         MOVWF   r0x00
0574 0E80      01048         MOVLW   0x80
0576 6E00      01049         MOVWF   r0x03
0578 0E00      01050         MOVLW   0x00
057A 6EED      01051         MOVWF   POSTDEC1
057C 0EFF      01052         MOVLW   0xff
057E 6EED      01053         MOVWF   POSTDEC1
0580 5000      01054         MOVF    r0x03, W
0582 6EED      01055         MOVWF   POSTDEC1
0584 5000      01056         MOVF    r0x02, W
0586 6EED      01057         MOVWF   POSTDEC1
0588 5000      01058         MOVF    r0x00, W
058A 6EED      01059         MOVWF   POSTDEC1
058C 5000      01060         MOVF    r0x01, W
058E EC00 F000 01061         CALL    _MIOS_HLP_16bitAddSaturate
0592 6E00      01062         MOVWF   r0x00
0594 0E05      01063         MOVLW   0x05
0596 26E9      01064         ADDWF   FSR1L, F
0598 5000      01065         MOVF    r0x00, W
059A B4D8      01066         BTFSC   STATUS, 2
059C D000      01067         BRA     _00636_DS_
059E 0000      01068         BANKSEL _ENC_NotifyChange_new_value_1_1
               01069         .line   785; main.c     all_param.lfo1_rate = new_value;} }
05A0 5100      01070         MOVF    _ENC_NotifyChange_new_value_1_1, W, B
05A2 6E00      01071         MOVWF   r0x00
05A4 5000      01072         MOVF    r0x00, W
05A6 0000      01073         BANKSEL (_all_param + 33)
05A8 6F00      01074         MOVWF   (_all_param + 33), B
               01075         .line   786; main.c     break;
05AA D000      01076         BRA     _00636_DS_
05AC           01077 _00627_DS_:
05AC 0000      01078         BANKSEL (_all_param + 2)
               01079         .line   790; main.c     if( all_param.router_flags_lfo3.lfo3_sync_bpm ) {
05AE AD00      01080         BTFSS   (_all_param + 2), 6, B
gpasm-0.13.6 beta               _output/main__mios-gpasm-tmp.asm7-10-2008  15:16:01          PAGE 21


LOC  OBJECT CODE     LINE SOURCE TEXT
  VALUE
 
05B0 D000      01081         BRA     _00633_DS_
               01082         .line   791; main.c     new_value = all_param.lfo2_bpm;
05B2 C000 F000 01083         MOVFF   (_all_param + 37), _ENC_NotifyChange_new_value_1_1
05B6 0000      01084         BANKSEL (_ENC_NotifyChange_new_value_1_1 + 1)
05B8 6B00      01085         CLRF    (_ENC_NotifyChange_new_value_1_1 + 1), B
               01086         .line   792; main.c     if( MIOS_HLP_16bitAddSaturate(incrementer, &new_value, 0x0a) ) {
05BA 0E00      01087         MOVLW   HIGH(_ENC_NotifyChange_new_value_1_1)
05BC 6E00      01088         MOVWF   r0x02
05BE 0E00      01089         MOVLW   LOW(_ENC_NotifyChange_new_value_1_1)
05C0 6E00      01090         MOVWF   r0x00
05C2 0E80      01091         MOVLW   0x80
05C4 6E00      01092         MOVWF   r0x03
05C6 0E00      01093         MOVLW   0x00
05C8 6EED      01094         MOVWF   POSTDEC1
05CA 0E0A      01095         MOVLW   0x0a
05CC 6EED      01096         MOVWF   POSTDEC1
05CE 5000      01097         MOVF    r0x03, W
05D0 6EED      01098         MOVWF   POSTDEC1
05D2 5000      01099         MOVF    r0x02, W
05D4 6EED      01100         MOVWF   POSTDEC1
05D6 5000      01101         MOVF    r0x00, W
05D8 6EED      01102         MOVWF   POSTDEC1
05DA 5000      01103         MOVF    r0x01, W
05DC EC00 F000 01104         CALL    _MIOS_HLP_16bitAddSaturate
05E0 6E00      01105         MOVWF   r0x00
05E2 0E05      01106         MOVLW   0x05
05E4 26E9      01107         ADDWF   FSR1L, F
05E6 5000      01108         MOVF    r0x00, W
05E8 E000      01109         BZ      _00636_DS_
05EA 0000      01110         BANKSEL _ENC_NotifyChange_new_value_1_1
               01111         .line   793; main.c     all_param.lfo2_bpm = new_value;
05EC 5100      01112         MOVF    _ENC_NotifyChange_new_value_1_1, W, B
05EE 6E00      01113         MOVWF   r0x00
05F0 5000      01114         MOVF    r0x00, W
05F2 0000      01115         BANKSEL (_all_param + 37)
05F4 6F00      01116         MOVWF   (_all_param + 37), B
05F6 0000      01117         BANKSEL _app_flags
               01118         .line   794; main.c     app_flags.DISPLAY_UPDATE_REQ = 1;}
05F8 8500      01119         BSF     _app_flags, 2, B
               01120         .line   795; main.c     break; }
05FA D000      01121         BRA     _00636_DS_
05FC           01122 _00633_DS_:
               01123         .line   797; main.c     new_value = all_param.lfo2_rate;
05FC C000 F000 01124         MOVFF   (_all_param + 34), _ENC_NotifyChange_new_value_1_1
0600 0000      01125         BANKSEL (_ENC_NotifyChange_new_value_1_1 + 1)
0602 6B00      01126         CLRF    (_ENC_NotifyChange_new_value_1_1 + 1), B
               01127         .line   798; main.c     if( MIOS_HLP_16bitAddSaturate(incrementer, &new_value, 0xff) ) {
0604 0E00      01128         MOVLW   HIGH(_ENC_NotifyChange_new_value_1_1)
0606 6E00      01129         MOVWF   r0x02
0608 0E00      01130         MOVLW   LOW(_ENC_NotifyChange_new_value_1_1)
060A 6E00      01131         MOVWF   r0x00
060C 0E80      01132         MOVLW   0x80
060E 6E00      01133         MOVWF   r0x03
0610 0E00      01134         MOVLW   0x00
gpasm-0.13.6 beta               _output/main__mios-gpasm-tmp.asm7-10-2008  15:16:01          PAGE 22


LOC  OBJECT CODE     LINE SOURCE TEXT
  VALUE
 
0612 6EED      01135         MOVWF   POSTDEC1
0614 0EFF      01136         MOVLW   0xff
0616 6EED      01137         MOVWF   POSTDEC1
0618 5000      01138         MOVF    r0x03, W
061A 6EED      01139         MOVWF   POSTDEC1
061C 5000      01140         MOVF    r0x02, W
061E 6EED      01141         MOVWF   POSTDEC1
0620 5000      01142         MOVF    r0x00, W
0622 6EED      01143         MOVWF   POSTDEC1
0624 5000      01144         MOVF    r0x01, W
0626 EC00 F000 01145         CALL    _MIOS_HLP_16bitAddSaturate
062A 6E00      01146         MOVWF   r0x00
062C 0E05      01147         MOVLW   0x05
062E 26E9      01148         ADDWF   FSR1L, F
0630 5000      01149         MOVF    r0x00, W
0632 E000      01150         BZ      _00636_DS_
0634 0000      01151         BANKSEL _ENC_NotifyChange_new_value_1_1
               01152         .line   799; main.c     all_param.lfo2_rate = new_value;}  }
0636 5100      01153         MOVF    _ENC_NotifyChange_new_value_1_1, W, B
0638 6E00      01154         MOVWF   r0x00
063A 5000      01155         MOVF    r0x00, W
063C 0000      01156         BANKSEL (_all_param + 34)
063E 6F00      01157         MOVWF   (_all_param + 34), B
0640           01158 _00636_DS_:
               01159         .line   801; main.c     }
0640 CFEC F000 01160         MOVFF   PREINC1, r0x03
0644 CFEC F000 01161         MOVFF   PREINC1, r0x02
0648 CFEC F000 01162         MOVFF   PREINC1, r0x01
064C CFEC F000 01163         MOVFF   PREINC1, r0x00
0650 CFEC FFD9 01164         MOVFF   PREINC1, FSR2L
0654 0012      01165         RETURN  
               01166 
               01167 ; ; Starting pCode block
               01168 S_main__DIN_NotifyToggle        code
0000           01169 _DIN_NotifyToggle:
               01170         .line   277; main.c     void DIN_NotifyToggle(unsigned char pin, unsigned char pin_value) __wparam
0000 CFD9 FFED 01171         MOVFF   FSR2L, POSTDEC1
0004 CFE9 FFD9 01172         MOVFF   FSR1L, FSR2L
0008 C000 FFED 01173         MOVFF   r0x00, POSTDEC1
000C C000 FFED 01174         MOVFF   r0x01, POSTDEC1
0010 C000 FFED 01175         MOVFF   r0x02, POSTDEC1
0014 6E00      01176         MOVWF   r0x00
0016 0E02      01177         MOVLW   0x02
0018 CFDB F000 01178         MOVFF   PLUSW2, r0x01
               01179         .line   281; main.c     switch( pin ) {
001C 0E22      01180         MOVLW   0x22
001E 5C00      01181         SUBWF   r0x00, W
0020 B0D8      01182         BTFSC   STATUS, 0
0022 EF00 F000 01183         GOTO    _00376_DS_
0026 C000 FFED 01184         MOVFF   r0x03, POSTDEC1
002A C000 FFED 01185         MOVFF   r0x04, POSTDEC1
002E 6A00      01186         CLRF    r0x04
0030 3400      01187         RLCF    r0x00, W
0032 3600      01188         RLCF    r0x04, F
gpasm-0.13.6 beta               _output/main__mios-gpasm-tmp.asm7-10-2008  15:16:01          PAGE 23


LOC  OBJECT CODE     LINE SOURCE TEXT
  VALUE
 
0034 34E8      01189         RLCF    WREG, W
0036 3600      01190         RLCF    r0x04, F
0038 0BFC      01191         ANDLW   0xfc
003A 6E00      01192         MOVWF   r0x03
003C 0E00      01193         MOVLW   UPPER(_00507_DS_)
003E 6EFB      01194         MOVWF   PCLATU
0040 0E00      01195         MOVLW   HIGH(_00507_DS_)
0042 6EFA      01196         MOVWF   PCLATH
0044 0E00      01197         MOVLW   LOW(_00507_DS_)
0046 2600      01198         ADDWF   r0x03, F
0048 5000      01199         MOVF    r0x04, W
004A 22FA      01200         ADDWFC  PCLATH, F
004C B0D8      01201         BTFSC   STATUS, 0
004E 2AFB      01202         INCF    PCLATU, F
0050 5000      01203         MOVF    r0x03, W
0052 CFEC F000 01204         MOVFF   PREINC1, r0x04
0056 CFEC F000 01205         MOVFF   PREINC1, r0x03
005A 6EF9      01206         MOVWF   PCL
005C           01207 _00507_DS_:
005C EF00 F000 01208         GOTO    _00193_DS_
0060 EF00 F000 01209         GOTO    _00204_DS_
0064 EF00 F000 01210         GOTO    _00207_DS_
0068 EF00 F000 01211         GOTO    _00210_DS_
006C EF00 F000 01212         GOTO    _00213_DS_
0070 EF00 F000 01213         GOTO    _00224_DS_
0074 EF00 F000 01214         GOTO    _00227_DS_
0078 EF00 F000 01215         GOTO    _00230_DS_
007C EF00 F000 01216         GOTO    _00233_DS_
0080 EF00 F000 01217         GOTO    _00241_DS_
0084 EF00 F000 01218         GOTO    _00244_DS_
0088 EF00 F000 01219         GOTO    _00247_DS_
008C EF00 F000 01220         GOTO    _00250_DS_
0090 EF00 F000 01221         GOTO    _00253_DS_
0094 EF00 F000 01222         GOTO    _00261_DS_
0098 EF00 F000 01223         GOTO    _00264_DS_
009C EF00 F000 01224         GOTO    _00267_DS_
00A0 EF00 F000 01225         GOTO    _00270_DS_
00A4 EF00 F000 01226         GOTO    _00273_DS_
00A8 EF00 F000 01227         GOTO    _00276_DS_
00AC EF00 F000 01228         GOTO    _00279_DS_
00B0 EF00 F000 01229         GOTO    _00282_DS_
00B4 EF00 F000 01230         GOTO    _00288_DS_
00B8 EF00 F000 01231         GOTO    _00294_DS_
00BC EF00 F000 01232         GOTO    _00297_DS_
00C0 EF00 F000 01233         GOTO    _00336_DS_
00C4 EF00 F000 01234         GOTO    _00342_DS_
00C8 EF00 F000 01235         GOTO    _00348_DS_
00CC EF00 F000 01236         GOTO    _00354_DS_
00D0 EF00 F000 01237         GOTO    _00360_DS_
00D4 EF00 F000 01238         GOTO    _00363_DS_
00D8 EF00 F000 01239         GOTO    _00366_DS_
00DC EF00 F000 01240         GOTO    _00369_DS_
00E0 EF00 F000 01241         GOTO    _00372_DS_
00E4           01242 _00193_DS_:
gpasm-0.13.6 beta               _output/main__mios-gpasm-tmp.asm7-10-2008  15:16:01          PAGE 24


LOC  OBJECT CODE     LINE SOURCE TEXT
  VALUE
 
               01243         .line   284; main.c     if( !pin_value )  {
00E4 5000      01244         MOVF    r0x01, W
00E6 A4D8      01245         BTFSS   STATUS, 2
00E8 D000      01246         BRA     _00204_DS_
00EA 0000      01247         BANKSEL _all_param
               01248         .line   285; main.c     if( all_param.router_flags_lfo1.lfo1_waveform == 1 ) {
00EC 5100      01249         MOVF    _all_param, W, B
00EE 0B0F      01250         ANDLW   0x0f
00F0 6E00      01251         MOVWF   r0x00
00F2 5000      01252         MOVF    r0x00, W
00F4 0A01      01253         XORLW   0x01
00F6 E100      01254         BNZ     _00195_DS_
               01255 ; ;;!!! pic16_aopOp:1070 called for a spillLocation -- assigning WREG instead --- CHECK
00F8           01256 _00509_DS_:
00F8 0000      01257         BANKSEL _all_param
               01258         .line   286; main.c     all_param.router_flags_lfo1.lfo1_waveform << 1;
00FA 5100      01259         MOVF    _all_param, W, B
00FC 0B0F      01260         ANDLW   0x0f
00FE 6EE8      01261         MOVWF   WREG
               01262         .line   287; main.c     MIOS_DOUT_PinSet(0, 0);
0100 0E00      01263         MOVLW   0x00
0102 6EED      01264         MOVWF   POSTDEC1
0104 0E00      01265         MOVLW   0x00
0106 EC00 F000 01266         CALL    _MIOS_DOUT_PinSet
010A 2AE9      01267         INCF    FSR1L, F
               01268         .line   288; main.c     MIOS_DOUT_PinSet(1, 1);
010C 0E01      01269         MOVLW   0x01
010E 6EED      01270         MOVWF   POSTDEC1
0110 0E01      01271         MOVLW   0x01
0112 EC00 F000 01272         CALL    _MIOS_DOUT_PinSet
0116 2AE9      01273         INCF    FSR1L, F
               01274         .line   289; main.c     break; }
0118 EF00 F000 01275         GOTO    _00376_DS_
011C           01276 _00195_DS_:
011C 0000      01277         BANKSEL _all_param
               01278         .line   290; main.c     if(all_param.router_flags_lfo1.lfo1_waveform == 2 ) {
011E 5100      01279         MOVF    _all_param, W, B
0120 0B0F      01280         ANDLW   0x0f
0122 6E00      01281         MOVWF   r0x00
0124 5000      01282         MOVF    r0x00, W
0126 0A02      01283         XORLW   0x02
0128 E100      01284         BNZ     _00197_DS_
               01285 ; ;;!!! pic16_aopOp:1070 called for a spillLocation -- assigning WREG instead --- CHECK
012A           01286 _00511_DS_:
012A 0000      01287         BANKSEL _all_param
               01288         .line   291; main.c     all_param.router_flags_lfo1.lfo1_waveform << 1;
012C 5100      01289         MOVF    _all_param, W, B
012E 0B0F      01290         ANDLW   0x0f
0130 6EE8      01291         MOVWF   WREG
               01292         .line   292; main.c     MIOS_DOUT_PinSet(1, 0);
0132 0E00      01293         MOVLW   0x00
0134 6EED      01294         MOVWF   POSTDEC1
0136 0E01      01295         MOVLW   0x01
0138 EC00 F000 01296         CALL    _MIOS_DOUT_PinSet
gpasm-0.13.6 beta               _output/main__mios-gpasm-tmp.asm7-10-2008  15:16:01          PAGE 25


LOC  OBJECT CODE     LINE SOURCE TEXT
  VALUE
 
013C 2AE9      01297         INCF    FSR1L, F
               01298         .line   293; main.c     MIOS_DOUT_PinSet(2, 1);
013E 0E01      01299         MOVLW   0x01
0140 6EED      01300         MOVWF   POSTDEC1
0142 0E02      01301         MOVLW   0x02
0144 EC00 F000 01302         CALL    _MIOS_DOUT_PinSet
0148 2AE9      01303         INCF    FSR1L, F
               01304         .line   294; main.c     break; }
014A EF00 F000 01305         GOTO    _00376_DS_
014E           01306 _00197_DS_:
014E 0000      01307         BANKSEL _all_param
               01308         .line   295; main.c     if(all_param.router_flags_lfo1.lfo1_waveform == 4 ) {
0150 5100      01309         MOVF    _all_param, W, B
0152 0B0F      01310         ANDLW   0x0f
0154 6E00      01311         MOVWF   r0x00
0156 5000      01312         MOVF    r0x00, W
0158 0A04      01313         XORLW   0x04
015A E100      01314         BNZ     _00199_DS_
               01315 ; ;;!!! pic16_aopOp:1070 called for a spillLocation -- assigning WREG instead --- CHECK
015C           01316 _00513_DS_:
015C 0000      01317         BANKSEL _all_param
               01318         .line   296; main.c     all_param.router_flags_lfo1.lfo1_waveform << 1;
015E 5100      01319         MOVF    _all_param, W, B
0160 0B0F      01320         ANDLW   0x0f
0162 6EE8      01321         MOVWF   WREG
               01322         .line   297; main.c     MIOS_DOUT_PinSet(2, 0);
0164 0E00      01323         MOVLW   0x00
0166 6EED      01324         MOVWF   POSTDEC1
0168 0E02      01325         MOVLW   0x02
016A EC00 F000 01326         CALL    _MIOS_DOUT_PinSet
016E 2AE9      01327         INCF    FSR1L, F
               01328         .line   298; main.c     MIOS_DOUT_PinSet(3, 1);
0170 0E01      01329         MOVLW   0x01
0172 6EED      01330         MOVWF   POSTDEC1
0174 0E03      01331         MOVLW   0x03
0176 EC00 F000 01332         CALL    _MIOS_DOUT_PinSet
017A 2AE9      01333         INCF    FSR1L, F
               01334         .line   299; main.c     break; }
017C EF00 F000 01335         GOTO    _00376_DS_
0180           01336 _00199_DS_:
0180 0000      01337         BANKSEL _all_param
               01338         .line   300; main.c     if(all_param.router_flags_lfo1.lfo1_waveform == 8 ) {
0182 5100      01339         MOVF    _all_param, W, B
0184 0B0F      01340         ANDLW   0x0f
0186 6E00      01341         MOVWF   r0x00
0188 5000      01342         MOVF    r0x00, W
018A 0A08      01343         XORLW   0x08
018C E100      01344         BNZ     _00204_DS_
               01345 ; ;;!!! pic16_aopOp:1070 called for a spillLocation -- assigning WREG instead --- CHECK
018E           01346 _00515_DS_:
018E 0000      01347         BANKSEL _all_param
               01348         .line   301; main.c     all_param.router_flags_lfo1.lfo1_waveform >> 3;
0190 5100      01349         MOVF    _all_param, W, B
0192 0B0F      01350         ANDLW   0x0f
gpasm-0.13.6 beta               _output/main__mios-gpasm-tmp.asm7-10-2008  15:16:01          PAGE 26


LOC  OBJECT CODE     LINE SOURCE TEXT
  VALUE
 
0194 6EE8      01351         MOVWF   WREG
               01352         .line   302; main.c     MIOS_DOUT_PinSet(3, 0);
0196 0E00      01353         MOVLW   0x00
0198 6EED      01354         MOVWF   POSTDEC1
019A 0E03      01355         MOVLW   0x03
019C EC00 F000 01356         CALL    _MIOS_DOUT_PinSet
01A0 2AE9      01357         INCF    FSR1L, F
               01358         .line   303; main.c     MIOS_DOUT_PinSet(1, 1);
01A2 0E01      01359         MOVLW   0x01
01A4 6EED      01360         MOVWF   POSTDEC1
01A6 0E01      01361         MOVLW   0x01
01A8 EC00 F000 01362         CALL    _MIOS_DOUT_PinSet
01AC 2AE9      01363         INCF    FSR1L, F
               01364         .line   304; main.c     break; }
01AE EF00 F000 01365         GOTO    _00376_DS_
01B2           01366 _00204_DS_:
               01367         .line   308; main.c     if( !pin_value ) {
01B2 5000      01368         MOVF    r0x01, W
01B4 E100      01369         BNZ     _00207_DS_
               01370         .line   310; main.c     all_param.router_flags_lfo1.lfo1_from_lfo2 ^= 1;
01B6 6A00      01371         CLRF    r0x00
01B8 0000      01372         BANKSEL _all_param
01BA B900      01373         BTFSC   _all_param, 4, B
01BC 2A00      01374         INCF    r0x00, F
01BE 0E01      01375         MOVLW   0x01
01C0 1A00      01376         XORWF   r0x00, F
01C2 5000      01377         MOVF    r0x00, W
01C4 0B01      01378         ANDLW   0x01
01C6 38E8      01379         SWAPF   WREG, W
01C8 6EF4      01380         MOVWF   PRODH
               01381 ; removed redundant BANKSEL
01CA 5100      01382         MOVF    _all_param, W, B
01CC 0BEF      01383         ANDLW   0xef
01CE 10F4      01384         IORWF   PRODH, W
               01385 ; removed redundant BANKSEL
01D0 6F00      01386         MOVWF   _all_param, B
               01387         .line   311; main.c     MIOS_DOUT_PinGet(4) ? MIOS_DOUT_PinSet(4, 0) : MIOS_DOUT_PinSet(4, 1);
01D2 0E04      01388         MOVLW   0x04
01D4 EC00 F000 01389         CALL    _MIOS_DOUT_PinGet
01D8 6E00      01390         MOVWF   r0x00
01DA 5000      01391         MOVF    r0x00, W
01DC E000      01392         BZ      _00378_DS_
01DE 0E00      01393         MOVLW   0x00
01E0 6EED      01394         MOVWF   POSTDEC1
01E2 0E04      01395         MOVLW   0x04
01E4 EC00 F000 01396         CALL    _MIOS_DOUT_PinSet
01E8 2AE9      01397         INCF    FSR1L, F
01EA EF00 F000 01398         GOTO    _00376_DS_
01EE           01399 _00378_DS_:
01EE 0E01      01400         MOVLW   0x01
01F0 6EED      01401         MOVWF   POSTDEC1
01F2 0E04      01402         MOVLW   0x04
01F4 EC00 F000 01403         CALL    _MIOS_DOUT_PinSet
01F8 2AE9      01404         INCF    FSR1L, F
gpasm-0.13.6 beta               _output/main__mios-gpasm-tmp.asm7-10-2008  15:16:01          PAGE 27


LOC  OBJECT CODE     LINE SOURCE TEXT
  VALUE
 
               01405         .line   312; main.c     break; }
01FA EF00 F000 01406         GOTO    _00376_DS_
01FE           01407 _00207_DS_:
               01408         .line   315; main.c     if( !pin_value )  {
01FE 5000      01409         MOVF    r0x01, W
0200 E100      01410         BNZ     _00210_DS_
               01411         .line   317; main.c     all_param.router_flags_lfo1.lfo1_note_start ^= 1;
0202 6A00      01412         CLRF    r0x00
0204 0000      01413         BANKSEL _all_param
0206 BB00      01414         BTFSC   _all_param, 5, B
0208 2A00      01415         INCF    r0x00, F
020A 0E01      01416         MOVLW   0x01
020C 1A00      01417         XORWF   r0x00, F
020E 5000      01418         MOVF    r0x00, W
0210 0B01      01419         ANDLW   0x01
0212 38E8      01420         SWAPF   WREG, W
0214 44E8      01421         RLNCF   WREG, W
0216 6EF4      01422         MOVWF   PRODH
               01423 ; removed redundant BANKSEL
0218 5100      01424         MOVF    _all_param, W, B
021A 0BDF      01425         ANDLW   0xdf
021C 10F4      01426         IORWF   PRODH, W
               01427 ; removed redundant BANKSEL
021E 6F00      01428         MOVWF   _all_param, B
               01429         .line   318; main.c     MIOS_DOUT_PinGet(5) ? MIOS_DOUT_PinSet(5, 0) : MIOS_DOUT_PinSet(5, 1);
0220 0E05      01430         MOVLW   0x05
0222 EC00 F000 01431         CALL    _MIOS_DOUT_PinGet
0226 6E00      01432         MOVWF   r0x00
0228 5000      01433         MOVF    r0x00, W
022A E000      01434         BZ      _00380_DS_
022C 0E00      01435         MOVLW   0x00
022E 6EED      01436         MOVWF   POSTDEC1
0230 0E05      01437         MOVLW   0x05
0232 EC00 F000 01438         CALL    _MIOS_DOUT_PinSet
0236 2AE9      01439         INCF    FSR1L, F
0238 EF00 F000 01440         GOTO    _00376_DS_
023C           01441 _00380_DS_:
023C 0E01      01442         MOVLW   0x01
023E 6EED      01443         MOVWF   POSTDEC1
0240 0E05      01444         MOVLW   0x05
0242 EC00 F000 01445         CALL    _MIOS_DOUT_PinSet
0246 2AE9      01446         INCF    FSR1L, F
               01447         .line   319; main.c     break; }
0248 EF00 F000 01448         GOTO    _00376_DS_
024C           01449 _00210_DS_:
               01450         .line   322; main.c     if( !pin_value )  {
024C 5000      01451         MOVF    r0x01, W
024E E100      01452         BNZ     _00213_DS_
               01453         .line   323; main.c     all_param.router_flags_lfo1.lfo1_sync_bpm ^= 1;
0250 6A00      01454         CLRF    r0x00
0252 0000      01455         BANKSEL _all_param
0254 BD00      01456         BTFSC   _all_param, 6, B
0256 2A00      01457         INCF    r0x00, F
0258 0E01      01458         MOVLW   0x01
gpasm-0.13.6 beta               _output/main__mios-gpasm-tmp.asm7-10-2008  15:16:01          PAGE 28


LOC  OBJECT CODE     LINE SOURCE TEXT
  VALUE
 
025A 1A00      01459         XORWF   r0x00, F
025C 5000      01460         MOVF    r0x00, W
025E 0B01      01461         ANDLW   0x01
0260 40E8      01462         RRNCF   WREG, W
0262 40E8      01463         RRNCF   WREG, W
0264 6EF4      01464         MOVWF   PRODH
               01465 ; removed redundant BANKSEL
0266 5100      01466         MOVF    _all_param, W, B
0268 0BBF      01467         ANDLW   0xbf
026A 10F4      01468         IORWF   PRODH, W
               01469 ; removed redundant BANKSEL
026C 6F00      01470         MOVWF   _all_param, B
               01471         .line   324; main.c     MIOS_DOUT_PinGet(6) ? MIOS_DOUT_PinSet(6, 0) : MIOS_DOUT_PinSet(6, 1);
026E 0E06      01472         MOVLW   0x06
0270 EC00 F000 01473         CALL    _MIOS_DOUT_PinGet
0274 6E00      01474         MOVWF   r0x00
0276 5000      01475         MOVF    r0x00, W
0278 E000      01476         BZ      _00382_DS_
027A 0E00      01477         MOVLW   0x00
027C 6EED      01478         MOVWF   POSTDEC1
027E 0E06      01479         MOVLW   0x06
0280 EC00 F000 01480         CALL    _MIOS_DOUT_PinSet
0284 2AE9      01481         INCF    FSR1L, F
0286 EF00 F000 01482         GOTO    _00376_DS_
028A           01483 _00382_DS_:
028A 0E01      01484         MOVLW   0x01
028C 6EED      01485         MOVWF   POSTDEC1
028E 0E06      01486         MOVLW   0x06
0290 EC00 F000 01487         CALL    _MIOS_DOUT_PinSet
0294 2AE9      01488         INCF    FSR1L, F
               01489         .line   325; main.c     break; }
0296 EF00 F000 01490         GOTO    _00376_DS_
029A           01491 _00213_DS_:
               01492         .line   328; main.c     if( !pin_value ) {
029A 5000      01493         MOVF    r0x01, W
029C A4D8      01494         BTFSS   STATUS, 2
029E D000      01495         BRA     _00224_DS_
02A0 0000      01496         BANKSEL (_all_param + 1)
               01497         .line   330; main.c     if( all_param.router_flags_lfo2.lfo2_waveform == 1 ) {
02A2 5100      01498         MOVF    (_all_param + 1), W, B
02A4 0B0F      01499         ANDLW   0x0f
02A6 6E00      01500         MOVWF   r0x00
02A8 5000      01501         MOVF    r0x00, W
02AA 0A01      01502         XORLW   0x01
02AC E100      01503         BNZ     _00215_DS_
               01504 ; ;;!!! pic16_aopOp:1070 called for a spillLocation -- assigning WREG instead --- CHECK
02AE           01505 _00520_DS_:
02AE 0000      01506         BANKSEL (_all_param + 1)
               01507         .line   331; main.c     all_param.router_flags_lfo2.lfo2_waveform << 1;
02B0 5100      01508         MOVF    (_all_param + 1), W, B
02B2 0B0F      01509         ANDLW   0x0f
02B4 6EE8      01510         MOVWF   WREG
               01511         .line   332; main.c     MIOS_DOUT_PinSet(8, 0);
02B6 0E00      01512         MOVLW   0x00
gpasm-0.13.6 beta               _output/main__mios-gpasm-tmp.asm7-10-2008  15:16:01          PAGE 29


LOC  OBJECT CODE     LINE SOURCE TEXT
  VALUE
 
02B8 6EED      01513         MOVWF   POSTDEC1
02BA 0E08      01514         MOVLW   0x08
02BC EC00 F000 01515         CALL    _MIOS_DOUT_PinSet
02C0 2AE9      01516         INCF    FSR1L, F
               01517         .line   333; main.c     MIOS_DOUT_PinSet(9, 1);
02C2 0E01      01518         MOVLW   0x01
02C4 6EED      01519         MOVWF   POSTDEC1
02C6 0E09      01520         MOVLW   0x09
02C8 EC00 F000 01521         CALL    _MIOS_DOUT_PinSet
02CC 2AE9      01522         INCF    FSR1L, F
               01523         .line   334; main.c     break;}
02CE EF00 F000 01524         GOTO    _00376_DS_
02D2           01525 _00215_DS_:
02D2 0000      01526         BANKSEL (_all_param + 1)
               01527         .line   336; main.c     if(all_param.router_flags_lfo2.lfo2_waveform == 2 ) {
02D4 5100      01528         MOVF    (_all_param + 1), W, B
02D6 0B0F      01529         ANDLW   0x0f
02D8 6E00      01530         MOVWF   r0x00
02DA 5000      01531         MOVF    r0x00, W
02DC 0A02      01532         XORLW   0x02
02DE E100      01533         BNZ     _00217_DS_
               01534 ; ;;!!! pic16_aopOp:1070 called for a spillLocation -- assigning WREG instead --- CHECK
02E0           01535 _00522_DS_:
02E0 0000      01536         BANKSEL (_all_param + 1)
               01537         .line   337; main.c     all_param.router_flags_lfo2.lfo2_waveform << 1;
02E2 5100      01538         MOVF    (_all_param + 1), W, B
02E4 0B0F      01539         ANDLW   0x0f
02E6 6EE8      01540         MOVWF   WREG
               01541         .line   338; main.c     MIOS_DOUT_PinSet(9, 0);
02E8 0E00      01542         MOVLW   0x00
02EA 6EED      01543         MOVWF   POSTDEC1
02EC 0E09      01544         MOVLW   0x09
02EE EC00 F000 01545         CALL    _MIOS_DOUT_PinSet
02F2 2AE9      01546         INCF    FSR1L, F
               01547         .line   339; main.c     MIOS_DOUT_PinSet(10, 1);
02F4 0E01      01548         MOVLW   0x01
02F6 6EED      01549         MOVWF   POSTDEC1
02F8 0E0A      01550         MOVLW   0x0a
02FA EC00 F000 01551         CALL    _MIOS_DOUT_PinSet
02FE 2AE9      01552         INCF    FSR1L, F
               01553         .line   340; main.c     break;}
0300 EF00 F000 01554         GOTO    _00376_DS_
0304           01555 _00217_DS_:
0304 0000      01556         BANKSEL (_all_param + 1)
               01557         .line   342; main.c     if(all_param.router_flags_lfo2.lfo2_waveform == 4 ) {
0306 5100      01558         MOVF    (_all_param + 1), W, B
0308 0B0F      01559         ANDLW   0x0f
030A 6E00      01560         MOVWF   r0x00
030C 5000      01561         MOVF    r0x00, W
030E 0A04      01562         XORLW   0x04
0310 E100      01563         BNZ     _00219_DS_
               01564 ; ;;!!! pic16_aopOp:1070 called for a spillLocation -- assigning WREG instead --- CHECK
0312           01565 _00524_DS_:
0312 0000      01566         BANKSEL (_all_param + 1)
gpasm-0.13.6 beta               _output/main__mios-gpasm-tmp.asm7-10-2008  15:16:01          PAGE 30


LOC  OBJECT CODE     LINE SOURCE TEXT
  VALUE
 
               01567         .line   343; main.c     all_param.router_flags_lfo2.lfo2_waveform << 1;
0314 5100      01568         MOVF    (_all_param + 1), W, B
0316 0B0F      01569         ANDLW   0x0f
0318 6EE8      01570         MOVWF   WREG
               01571         .line   344; main.c     MIOS_DOUT_PinSet(10, 0);
031A 0E00      01572         MOVLW   0x00
031C 6EED      01573         MOVWF   POSTDEC1
031E 0E0A      01574         MOVLW   0x0a
0320 EC00 F000 01575         CALL    _MIOS_DOUT_PinSet
0324 2AE9      01576         INCF    FSR1L, F
               01577         .line   345; main.c     MIOS_DOUT_PinSet(11, 1);
0326 0E01      01578         MOVLW   0x01
0328 6EED      01579         MOVWF   POSTDEC1
032A 0E0B      01580         MOVLW   0x0b
032C EC00 F000 01581         CALL    _MIOS_DOUT_PinSet
0330 2AE9      01582         INCF    FSR1L, F
               01583         .line   346; main.c     break;}
0332 EF00 F000 01584         GOTO    _00376_DS_
0336           01585 _00219_DS_:
0336 0000      01586         BANKSEL (_all_param + 1)
               01587         .line   348; main.c     if(all_param.router_flags_lfo2.lfo2_waveform == 8 ) {
0338 5100      01588         MOVF    (_all_param + 1), W, B
033A 0B0F      01589         ANDLW   0x0f
033C 6E00      01590         MOVWF   r0x00
033E 5000      01591         MOVF    r0x00, W
0340 0A08      01592         XORLW   0x08
0342 E100      01593         BNZ     _00224_DS_
               01594 ; ;;!!! pic16_aopOp:1070 called for a spillLocation -- assigning WREG instead --- CHECK
0344           01595 _00526_DS_:
0344 0000      01596         BANKSEL (_all_param + 1)
               01597         .line   349; main.c     all_param.router_flags_lfo2.lfo2_waveform >> 3;
0346 5100      01598         MOVF    (_all_param + 1), W, B
0348 0B0F      01599         ANDLW   0x0f
034A 6EE8      01600         MOVWF   WREG
               01601         .line   350; main.c     MIOS_DOUT_PinSet(11, 0);
034C 0E00      01602         MOVLW   0x00
034E 6EED      01603         MOVWF   POSTDEC1
0350 0E0B      01604         MOVLW   0x0b
0352 EC00 F000 01605         CALL    _MIOS_DOUT_PinSet
0356 2AE9      01606         INCF    FSR1L, F
               01607         .line   351; main.c     MIOS_DOUT_PinSet(8, 1);
0358 0E01      01608         MOVLW   0x01
035A 6EED      01609         MOVWF   POSTDEC1
035C 0E08      01610         MOVLW   0x08
035E EC00 F000 01611         CALL    _MIOS_DOUT_PinSet
0362 2AE9      01612         INCF    FSR1L, F
               01613         .line   352; main.c     break;} }
0364 EF00 F000 01614         GOTO    _00376_DS_
0368           01615 _00224_DS_:
               01616         .line   355; main.c     if( !pin_value ) {
0368 5000      01617         MOVF    r0x01, W
036A A4D8      01618         BTFSS   STATUS, 2
036C EF00 F000 01619         GOTO    _00376_DS_
               01620         .line   356; main.c     all_param.router_flags_lfo2.lfo2_from_lfo3 ^= 1;
gpasm-0.13.6 beta               _output/main__mios-gpasm-tmp.asm7-10-2008  15:16:01          PAGE 31


LOC  OBJECT CODE     LINE SOURCE TEXT
  VALUE
 
0370 6A00      01621         CLRF    r0x00
0372 0000      01622         BANKSEL (_all_param + 1)
0374 B900      01623         BTFSC   (_all_param + 1), 4, B
0376 2A00      01624         INCF    r0x00, F
0378 0E01      01625         MOVLW   0x01
037A 1A00      01626         XORWF   r0x00, F
037C 5000      01627         MOVF    r0x00, W
037E 0B01      01628         ANDLW   0x01
0380 38E8      01629         SWAPF   WREG, W
0382 6EF4      01630         MOVWF   PRODH
               01631 ; removed redundant BANKSEL
0384 5100      01632         MOVF    (_all_param + 1), W, B
0386 0BEF      01633         ANDLW   0xef
0388 10F4      01634         IORWF   PRODH, W
               01635 ; removed redundant BANKSEL
038A 6F00      01636         MOVWF   (_all_param + 1), B
               01637         .line   357; main.c     MIOS_DOUT_PinGet(12) ? MIOS_DOUT_PinSet(12, 0) : MIOS_DOUT_PinSet(12, 1); }
038C 0E0C      01638         MOVLW   0x0c
038E EC00 F000 01639         CALL    _MIOS_DOUT_PinGet
0392 6E00      01640         MOVWF   r0x00
0394 5000      01641         MOVF    r0x00, W
0396 E000      01642         BZ      _00384_DS_
0398 0E00      01643         MOVLW   0x00
039A 6EED      01644         MOVWF   POSTDEC1
039C 0E0C      01645         MOVLW   0x0c
039E EC00 F000 01646         CALL    _MIOS_DOUT_PinSet
03A2 2AE9      01647         INCF    FSR1L, F
03A4 EF00 F000 01648         GOTO    _00376_DS_
03A8           01649 _00384_DS_:
03A8 0E01      01650         MOVLW   0x01
03AA 6EED      01651         MOVWF   POSTDEC1
03AC 0E0C      01652         MOVLW   0x0c
03AE EC00 F000 01653         CALL    _MIOS_DOUT_PinSet
03B2 2AE9      01654         INCF    FSR1L, F
               01655         .line   358; main.c     break;
03B4 EF00 F000 01656         GOTO    _00376_DS_
03B8           01657 _00227_DS_:
               01658         .line   361; main.c     if( !pin_value ) {
03B8 5000      01659         MOVF    r0x01, W
03BA A4D8      01660         BTFSS   STATUS, 2
03BC EF00 F000 01661         GOTO    _00376_DS_
               01662         .line   362; main.c     all_param.router_flags_lfo2.lfo2_note_start ^= 1;
03C0 6A00      01663         CLRF    r0x00
03C2 0000      01664         BANKSEL (_all_param + 1)
03C4 BB00      01665         BTFSC   (_all_param + 1), 5, B
03C6 2A00      01666         INCF    r0x00, F
03C8 0E01      01667         MOVLW   0x01
03CA 1A00      01668         XORWF   r0x00, F
03CC 5000      01669         MOVF    r0x00, W
03CE 0B01      01670         ANDLW   0x01
03D0 38E8      01671         SWAPF   WREG, W
03D2 44E8      01672         RLNCF   WREG, W
03D4 6EF4      01673         MOVWF   PRODH
               01674 ; removed redundant BANKSEL
gpasm-0.13.6 beta               _output/main__mios-gpasm-tmp.asm7-10-2008  15:16:01          PAGE 32


LOC  OBJECT CODE     LINE SOURCE TEXT
  VALUE
 
03D6 5100      01675         MOVF    (_all_param + 1), W, B
03D8 0BDF      01676         ANDLW   0xdf
03DA 10F4      01677         IORWF   PRODH, W
               01678 ; removed redundant BANKSEL
03DC 6F00      01679         MOVWF   (_all_param + 1), B
               01680         .line   363; main.c     MIOS_DOUT_PinGet(13) ? MIOS_DOUT_PinSet(13, 0) : MIOS_DOUT_PinSet(13, 1);       }
03DE 0E0D      01681         MOVLW   0x0d
03E0 EC00 F000 01682         CALL    _MIOS_DOUT_PinGet
03E4 6E00      01683         MOVWF   r0x00
03E6 5000      01684         MOVF    r0x00, W
03E8 E000      01685         BZ      _00386_DS_
03EA 0E00      01686         MOVLW   0x00
03EC 6EED      01687         MOVWF   POSTDEC1
03EE 0E0D      01688         MOVLW   0x0d
03F0 EC00 F000 01689         CALL    _MIOS_DOUT_PinSet
03F4 2AE9      01690         INCF    FSR1L, F
03F6 EF00 F000 01691         GOTO    _00376_DS_
03FA           01692 _00386_DS_:
03FA 0E01      01693         MOVLW   0x01
03FC 6EED      01694         MOVWF   POSTDEC1
03FE 0E0D      01695         MOVLW   0x0d
0400 EC00 F000 01696         CALL    _MIOS_DOUT_PinSet
0404 2AE9      01697         INCF    FSR1L, F
               01698         .line   364; main.c     break;
0406 EF00 F000 01699         GOTO    _00376_DS_
040A           01700 _00230_DS_:
               01701         .line   367; main.c     if( !pin_value )  {
040A 5000      01702         MOVF    r0x01, W
040C A4D8      01703         BTFSS   STATUS, 2
040E EF00 F000 01704         GOTO    _00376_DS_
               01705         .line   368; main.c     all_param.router_flags_lfo2.lfo2_sync_bpm ^= 1;
0412 6A00      01706         CLRF    r0x00
0414 0000      01707         BANKSEL (_all_param + 1)
0416 BD00      01708         BTFSC   (_all_param + 1), 6, B
0418 2A00      01709         INCF    r0x00, F
041A 0E01      01710         MOVLW   0x01
041C 1A00      01711         XORWF   r0x00, F
041E 5000      01712         MOVF    r0x00, W
0420 0B01      01713         ANDLW   0x01
0422 40E8      01714         RRNCF   WREG, W
0424 40E8      01715         RRNCF   WREG, W
0426 6EF4      01716         MOVWF   PRODH
               01717 ; removed redundant BANKSEL
0428 5100      01718         MOVF    (_all_param + 1), W, B
042A 0BBF      01719         ANDLW   0xbf
042C 10F4      01720         IORWF   PRODH, W
               01721 ; removed redundant BANKSEL
042E 6F00      01722         MOVWF   (_all_param + 1), B
               01723         .line   369; main.c     MIOS_DOUT_PinGet(14) ? MIOS_DOUT_PinSet(14, 0) : MIOS_DOUT_PinSet(14, 1);}
0430 0E0E      01724         MOVLW   0x0e
0432 EC00 F000 01725         CALL    _MIOS_DOUT_PinGet
0436 6E00      01726         MOVWF   r0x00
0438 5000      01727         MOVF    r0x00, W
043A E000      01728         BZ      _00388_DS_
gpasm-0.13.6 beta               _output/main__mios-gpasm-tmp.asm7-10-2008  15:16:01          PAGE 33


LOC  OBJECT CODE     LINE SOURCE TEXT
  VALUE
 
043C 0E00      01729         MOVLW   0x00
043E 6EED      01730         MOVWF   POSTDEC1
0440 0E0E      01731         MOVLW   0x0e
0442 EC00 F000 01732         CALL    _MIOS_DOUT_PinSet
0446 2AE9      01733         INCF    FSR1L, F
0448 EF00 F000 01734         GOTO    _00376_DS_
044C           01735 _00388_DS_:
044C 0E01      01736         MOVLW   0x01
044E 6EED      01737         MOVWF   POSTDEC1
0450 0E0E      01738         MOVLW   0x0e
0452 EC00 F000 01739         CALL    _MIOS_DOUT_PinSet
0456 2AE9      01740         INCF    FSR1L, F
               01741         .line   370; main.c     break;
0458 EF00 F000 01742         GOTO    _00376_DS_
045C           01743 _00233_DS_:
               01744         .line   373; main.c     if( !pin_value ) {
045C 5000      01745         MOVF    r0x01, W
045E A4D8      01746         BTFSS   STATUS, 2
0460 EF00 F000 01747         GOTO    _00376_DS_
0464 0000      01748         BANKSEL (_all_param + 2)
               01749         .line   375; main.c     if( all_param.router_flags_lfo3.lfo3_waveform == 1 ) {
0466 5100      01750         MOVF    (_all_param + 2), W, B
0468 0B07      01751         ANDLW   0x07
046A 6E00      01752         MOVWF   r0x00
046C 5000      01753         MOVF    r0x00, W
046E 0A01      01754         XORLW   0x01
0470 E100      01755         BNZ     _00235_DS_
               01756 ; ;;!!! pic16_aopOp:1070 called for a spillLocation -- assigning WREG instead --- CHECK
0472           01757 _00531_DS_:
0472 0000      01758         BANKSEL (_all_param + 2)
               01759         .line   376; main.c     all_param.router_flags_lfo3.lfo3_waveform << 1;
0474 5100      01760         MOVF    (_all_param + 2), W, B
0476 0B07      01761         ANDLW   0x07
0478 6EE8      01762         MOVWF   WREG
               01763         .line   377; main.c     MIOS_DOUT_PinSet(16, 0);
047A 0E00      01764         MOVLW   0x00
047C 6EED      01765         MOVWF   POSTDEC1
047E 0E10      01766         MOVLW   0x10
0480 EC00 F000 01767         CALL    _MIOS_DOUT_PinSet
0484 2AE9      01768         INCF    FSR1L, F
               01769         .line   378; main.c     MIOS_DOUT_PinSet(17, 1);
0486 0E01      01770         MOVLW   0x01
0488 6EED      01771         MOVWF   POSTDEC1
048A 0E11      01772         MOVLW   0x11
048C EC00 F000 01773         CALL    _MIOS_DOUT_PinSet
0490 2AE9      01774         INCF    FSR1L, F
               01775         .line   379; main.c     break;}
0492 EF00 F000 01776         GOTO    _00376_DS_
0496           01777 _00235_DS_:
0496 0000      01778         BANKSEL (_all_param + 2)
               01779         .line   381; main.c     if( all_param.router_flags_lfo3.lfo3_waveform == 2 ) {
0498 5100      01780         MOVF    (_all_param + 2), W, B
049A 0B07      01781         ANDLW   0x07
049C 6E00      01782         MOVWF   r0x00
gpasm-0.13.6 beta               _output/main__mios-gpasm-tmp.asm7-10-2008  15:16:01          PAGE 34


LOC  OBJECT CODE     LINE SOURCE TEXT
  VALUE
 
049E 5000      01783         MOVF    r0x00, W
04A0 0A02      01784         XORLW   0x02
04A2 E100      01785         BNZ     _00237_DS_
               01786 ; ;;!!! pic16_aopOp:1070 called for a spillLocation -- assigning WREG instead --- CHECK
04A4           01787 _00533_DS_:
04A4 0000      01788         BANKSEL (_all_param + 2)
               01789         .line   382; main.c     all_param.router_flags_lfo3.lfo3_waveform << 1;
04A6 5100      01790         MOVF    (_all_param + 2), W, B
04A8 0B07      01791         ANDLW   0x07
04AA 6EE8      01792         MOVWF   WREG
               01793         .line   383; main.c     MIOS_DOUT_PinSet(17, 0);
04AC 0E00      01794         MOVLW   0x00
04AE 6EED      01795         MOVWF   POSTDEC1
04B0 0E11      01796         MOVLW   0x11
04B2 EC00 F000 01797         CALL    _MIOS_DOUT_PinSet
04B6 2AE9      01798         INCF    FSR1L, F
               01799         .line   384; main.c     MIOS_DOUT_PinSet(18, 1);
04B8 0E01      01800         MOVLW   0x01
04BA 6EED      01801         MOVWF   POSTDEC1
04BC 0E12      01802         MOVLW   0x12
04BE EC00 F000 01803         CALL    _MIOS_DOUT_PinSet
04C2 2AE9      01804         INCF    FSR1L, F
               01805         .line   385; main.c     break;}
04C4 EF00 F000 01806         GOTO    _00376_DS_
               01807 ; ;;!!! pic16_aopOp:1070 called for a spillLocation -- assigning WREG instead --- CHECK
04C8           01808 _00237_DS_:
04C8 0000      01809         BANKSEL (_all_param + 2)
               01810         .line   388; main.c     all_param.router_flags_lfo3.lfo3_waveform == 4;
04CA 5100      01811         MOVF    (_all_param + 2), W, B
04CC 0B07      01812         ANDLW   0x07
04CE 6EE8      01813         MOVWF   WREG
               01814 ; ;;!!! pic16_aopOp:1070 called for a spillLocation -- assigning WREG instead --- CHECK
               01815 ; removed redundant BANKSEL
               01816         .line   389; main.c     all_param.router_flags_lfo3.lfo3_waveform >> 2;
04D0 5100      01817         MOVF    (_all_param + 2), W, B
04D2 0B07      01818         ANDLW   0x07
04D4 6EE8      01819         MOVWF   WREG
               01820         .line   390; main.c     MIOS_DOUT_PinSet(18, 0);
04D6 0E00      01821         MOVLW   0x00
04D8 6EED      01822         MOVWF   POSTDEC1
04DA 0E12      01823         MOVLW   0x12
04DC EC00 F000 01824         CALL    _MIOS_DOUT_PinSet
04E0 2AE9      01825         INCF    FSR1L, F
               01826         .line   391; main.c     MIOS_DOUT_PinSet(16, 1); }     }
04E2 0E01      01827         MOVLW   0x01
04E4 6EED      01828         MOVWF   POSTDEC1
04E6 0E10      01829         MOVLW   0x10
04E8 EC00 F000 01830         CALL    _MIOS_DOUT_PinSet
04EC 2AE9      01831         INCF    FSR1L, F
               01832         .line   392; main.c     break;
04EE EF00 F000 01833         GOTO    _00376_DS_
04F2           01834 _00241_DS_:
               01835         .line   395; main.c     if( !pin_value )
04F2 5000      01836         MOVF    r0x01, W
gpasm-0.13.6 beta               _output/main__mios-gpasm-tmp.asm7-10-2008  15:16:01          PAGE 35


LOC  OBJECT CODE     LINE SOURCE TEXT
  VALUE
 
04F4 A4D8      01837         BTFSS   STATUS, 2
04F6 EF00 F000 01838         GOTO    _00376_DS_
               01839         .line   396; main.c     {   all_param.router_flags_lfo3.lfo3_note_start ^= 1;
04FA 6A00      01840         CLRF    r0x00
04FC 0000      01841         BANKSEL (_all_param + 2)
04FE BB00      01842         BTFSC   (_all_param + 2), 5, B
0500 2A00      01843         INCF    r0x00, F
0502 0E01      01844         MOVLW   0x01
0504 1A00      01845         XORWF   r0x00, F
0506 5000      01846         MOVF    r0x00, W
0508 0B01      01847         ANDLW   0x01
050A 38E8      01848         SWAPF   WREG, W
050C 44E8      01849         RLNCF   WREG, W
050E 6EF4      01850         MOVWF   PRODH
               01851 ; removed redundant BANKSEL
0510 5100      01852         MOVF    (_all_param + 2), W, B
0512 0BDF      01853         ANDLW   0xdf
0514 10F4      01854         IORWF   PRODH, W
               01855 ; removed redundant BANKSEL
0516 6F00      01856         MOVWF   (_all_param + 2), B
               01857         .line   397; main.c     MIOS_DOUT_PinGet(21) ? MIOS_DOUT_PinSet(21, 0) : MIOS_DOUT_PinSet(21, 1);       }
0518 0E15      01858         MOVLW   0x15
051A EC00 F000 01859         CALL    _MIOS_DOUT_PinGet
051E 6E00      01860         MOVWF   r0x00
0520 5000      01861         MOVF    r0x00, W
0522 E000      01862         BZ      _00390_DS_
0524 0E00      01863         MOVLW   0x00
0526 6EED      01864         MOVWF   POSTDEC1
0528 0E15      01865         MOVLW   0x15
052A EC00 F000 01866         CALL    _MIOS_DOUT_PinSet
052E 2AE9      01867         INCF    FSR1L, F
0530 EF00 F000 01868         GOTO    _00376_DS_
0534           01869 _00390_DS_:
0534 0E01      01870         MOVLW   0x01
0536 6EED      01871         MOVWF   POSTDEC1
0538 0E15      01872         MOVLW   0x15
053A EC00 F000 01873         CALL    _MIOS_DOUT_PinSet
053E 2AE9      01874         INCF    FSR1L, F
               01875         .line   398; main.c     break;
0540 EF00 F000 01876         GOTO    _00376_DS_
0544           01877 _00244_DS_:
               01878         .line   401; main.c     if( !pin_value )
0544 5000      01879         MOVF    r0x01, W
0546 A4D8      01880         BTFSS   STATUS, 2
0548 EF00 F000 01881         GOTO    _00376_DS_
               01882         .line   402; main.c     {   all_param.router_flags_lfo3.lfo3_sync_bpm ^= 1;
054C 6A00      01883         CLRF    r0x00
054E 0000      01884         BANKSEL (_all_param + 2)
0550 BD00      01885         BTFSC   (_all_param + 2), 6, B
0552 2A00      01886         INCF    r0x00, F
0554 0E01      01887         MOVLW   0x01
0556 1A00      01888         XORWF   r0x00, F
0558 5000      01889         MOVF    r0x00, W
055A 0B01      01890         ANDLW   0x01
gpasm-0.13.6 beta               _output/main__mios-gpasm-tmp.asm7-10-2008  15:16:01          PAGE 36


LOC  OBJECT CODE     LINE SOURCE TEXT
  VALUE
 
055C 40E8      01891         RRNCF   WREG, W
055E 40E8      01892         RRNCF   WREG, W
0560 6EF4      01893         MOVWF   PRODH
               01894 ; removed redundant BANKSEL
0562 5100      01895         MOVF    (_all_param + 2), W, B
0564 0BBF      01896         ANDLW   0xbf
0566 10F4      01897         IORWF   PRODH, W
               01898 ; removed redundant BANKSEL
0568 6F00      01899         MOVWF   (_all_param + 2), B
               01900         .line   403; main.c     MIOS_DOUT_PinGet(22) ? MIOS_DOUT_PinSet(22, 0) : MIOS_DOUT_PinSet(22, 1);       }
056A 0E16      01901         MOVLW   0x16
056C EC00 F000 01902         CALL    _MIOS_DOUT_PinGet
0570 6E00      01903         MOVWF   r0x00
0572 5000      01904         MOVF    r0x00, W
0574 E000      01905         BZ      _00392_DS_
0576 0E00      01906         MOVLW   0x00
0578 6EED      01907         MOVWF   POSTDEC1
057A 0E16      01908         MOVLW   0x16
057C EC00 F000 01909         CALL    _MIOS_DOUT_PinSet
0580 2AE9      01910         INCF    FSR1L, F
0582 EF00 F000 01911         GOTO    _00376_DS_
0586           01912 _00392_DS_:
0586 0E01      01913         MOVLW   0x01
0588 6EED      01914         MOVWF   POSTDEC1
058A 0E16      01915         MOVLW   0x16
058C EC00 F000 01916         CALL    _MIOS_DOUT_PinSet
0590 2AE9      01917         INCF    FSR1L, F
               01918         .line   404; main.c     break;
0592 EF00 F000 01919         GOTO    _00376_DS_
0596           01920 _00247_DS_:
               01921         .line   407; main.c     if( !pin_value ) {
0596 5000      01922         MOVF    r0x01, W
0598 A4D8      01923         BTFSS   STATUS, 2
059A EF00 F000 01924         GOTO    _00376_DS_
059E 0000      01925         BANKSEL (_all_param + 3)
               01926         .line   408; main.c     all_param.router_flags_lfo1_att.ALL_flags_lfo1_att ^= all_param.eg_select;
05A0 5100      01927         MOVF    (_all_param + 3), W, B
05A2 0BFF      01928         ANDLW   0xff
05A4 6E00      01929         MOVWF   r0x00
               01930 ; removed redundant BANKSEL
05A6 5100      01931         MOVF    (_all_param + 38), W, B
05A8 1A00      01932         XORWF   r0x00, F
05AA 5000      01933         MOVF    r0x00, W
               01934 ; removed redundant BANKSEL
05AC 6F00      01935         MOVWF   (_all_param + 3), B
               01936         .line   409; main.c     MIOS_DOUT_PinGet(24) ? MIOS_DOUT_PinSet(24, 0) : MIOS_DOUT_PinSet(24, 1); }
05AE 0E18      01937         MOVLW   0x18
05B0 EC00 F000 01938         CALL    _MIOS_DOUT_PinGet
05B4 6E00      01939         MOVWF   r0x00
05B6 5000      01940         MOVF    r0x00, W
05B8 E000      01941         BZ      _00394_DS_
05BA 0E00      01942         MOVLW   0x00
05BC 6EED      01943         MOVWF   POSTDEC1
05BE 0E18      01944         MOVLW   0x18
gpasm-0.13.6 beta               _output/main__mios-gpasm-tmp.asm7-10-2008  15:16:01          PAGE 37


LOC  OBJECT CODE     LINE SOURCE TEXT
  VALUE
 
05C0 EC00 F000 01945         CALL    _MIOS_DOUT_PinSet
05C4 2AE9      01946         INCF    FSR1L, F
05C6 EF00 F000 01947         GOTO    _00376_DS_
05CA           01948 _00394_DS_:
05CA 0E01      01949         MOVLW   0x01
05CC 6EED      01950         MOVWF   POSTDEC1
05CE 0E18      01951         MOVLW   0x18
05D0 EC00 F000 01952         CALL    _MIOS_DOUT_PinSet
05D4 2AE9      01953         INCF    FSR1L, F
               01954         .line   410; main.c     break;
05D6 EF00 F000 01955         GOTO    _00376_DS_
05DA           01956 _00250_DS_:
               01957         .line   414; main.c     if( !pin_value ) {
05DA 5000      01958         MOVF    r0x01, W
05DC A4D8      01959         BTFSS   STATUS, 2
05DE EF00 F000 01960         GOTO    _00376_DS_
05E2 0000      01961         BANKSEL (_all_param + 4)
               01962         .line   415; main.c     all_param.router_flags_lfo1_dec.ALL_flags_lfo1_dec ^= all_param.eg_select ;
05E4 5100      01963         MOVF    (_all_param + 4), W, B
05E6 0BFF      01964         ANDLW   0xff
05E8 6E00      01965         MOVWF   r0x00
               01966 ; removed redundant BANKSEL
05EA 5100      01967         MOVF    (_all_param + 38), W, B
05EC 1A00      01968         XORWF   r0x00, F
05EE 5000      01969         MOVF    r0x00, W
               01970 ; removed redundant BANKSEL
05F0 6F00      01971         MOVWF   (_all_param + 4), B
               01972         .line   416; main.c     MIOS_DOUT_PinGet(25) ? MIOS_DOUT_PinSet(25, 0) : MIOS_DOUT_PinSet(25, 1);       }
05F2 0E19      01973         MOVLW   0x19
05F4 EC00 F000 01974         CALL    _MIOS_DOUT_PinGet
05F8 6E00      01975         MOVWF   r0x00
05FA 5000      01976         MOVF    r0x00, W
05FC E000      01977         BZ      _00396_DS_
05FE 0E00      01978         MOVLW   0x00
0600 6EED      01979         MOVWF   POSTDEC1
0602 0E19      01980         MOVLW   0x19
0604 EC00 F000 01981         CALL    _MIOS_DOUT_PinSet
0608 2AE9      01982         INCF    FSR1L, F
060A EF00 F000 01983         GOTO    _00376_DS_
060E           01984 _00396_DS_:
060E 0E01      01985         MOVLW   0x01
0610 6EED      01986         MOVWF   POSTDEC1
0612 0E19      01987         MOVLW   0x19
0614 EC00 F000 01988         CALL    _MIOS_DOUT_PinSet
0618 2AE9      01989         INCF    FSR1L, F
               01990         .line   417; main.c     break;
061A EF00 F000 01991         GOTO    _00376_DS_
061E           01992 _00253_DS_:
               01993         .line   420; main.c     if( !pin_value ) {
061E 5000      01994         MOVF    r0x01, W
0620 A4D8      01995         BTFSS   STATUS, 2
0622 EF00 F000 01996         GOTO    _00376_DS_
               01997         .line   421; main.c     switch( all_param.eg_select ) {
0626 C000 F000 01998         MOVFF   (_all_param + 38), r0x00
gpasm-0.13.6 beta               _output/main__mios-gpasm-tmp.asm7-10-2008  15:16:01          PAGE 38


LOC  OBJECT CODE     LINE SOURCE TEXT
  VALUE
 
062A 5000      01999         MOVF    r0x00, W
062C 0A01      02000         XORLW   0x01
062E E000      02001         BZ      _00255_DS_
0630 5000      02002         MOVF    r0x00, W
0632 0A02      02003         XORLW   0x02
0634 E000      02004         BZ      _00255_DS_
0636 5000      02005         MOVF    r0x00, W
0638 0A04      02006         XORLW   0x04
063A E000      02007         BZ      _00257_DS_
063C 5000      02008         MOVF    r0x00, W
063E 0A08      02009         XORLW   0x08
0640 E000      02010         BZ      _00257_DS_
0642 EF00 F000 02011         GOTO    _00376_DS_
0646           02012 _00255_DS_:
               02013         .line   423; main.c     all_param.router_flags_eg_link.eg1_link_eg2 ^= 1;
0646 6A00      02014         CLRF    r0x00
0648 0000      02015         BANKSEL (_all_param + 5)
064A B100      02016         BTFSC   (_all_param + 5), 0, B
064C 2A00      02017         INCF    r0x00, F
064E 0E01      02018         MOVLW   0x01
0650 1A00      02019         XORWF   r0x00, F
0652 5000      02020         MOVF    r0x00, W
0654 0B01      02021         ANDLW   0x01
0656 6EF4      02022         MOVWF   PRODH
               02023 ; removed redundant BANKSEL
0658 5100      02024         MOVF    (_all_param + 5), W, B
065A 0BFE      02025         ANDLW   0xfe
065C 10F4      02026         IORWF   PRODH, W
               02027 ; removed redundant BANKSEL
065E 6F00      02028         MOVWF   (_all_param + 5), B
               02029         .line   424; main.c     MIOS_DOUT_PinGet(26) ? MIOS_DOUT_PinSet(26, 0) : MIOS_DOUT_PinSet(26, 1);
0660 0E1A      02030         MOVLW   0x1a
0662 EC00 F000 02031         CALL    _MIOS_DOUT_PinGet
0666 6E00      02032         MOVWF   r0x00
0668 5000      02033         MOVF    r0x00, W
066A E000      02034         BZ      _00398_DS_
066C 0E00      02035         MOVLW   0x00
066E 6EED      02036         MOVWF   POSTDEC1
0670 0E1A      02037         MOVLW   0x1a
0672 EC00 F000 02038         CALL    _MIOS_DOUT_PinSet
0676 2AE9      02039         INCF    FSR1L, F
0678 EF00 F000 02040         GOTO    _00376_DS_
067C           02041 _00398_DS_:
067C 0E01      02042         MOVLW   0x01
067E 6EED      02043         MOVWF   POSTDEC1
0680 0E1A      02044         MOVLW   0x1a
0682 EC00 F000 02045         CALL    _MIOS_DOUT_PinSet
0686 2AE9      02046         INCF    FSR1L, F
               02047         .line   425; main.c     break;
0688 EF00 F000 02048         GOTO    _00376_DS_
068C           02049 _00257_DS_:
               02050         .line   427; main.c     all_param.router_flags_eg_link.eg3_link_eg4 ^= 1;
068C 6A00      02051         CLRF    r0x00
068E 0000      02052         BANKSEL (_all_param + 5)
gpasm-0.13.6 beta               _output/main__mios-gpasm-tmp.asm7-10-2008  15:16:01          PAGE 39


LOC  OBJECT CODE     LINE SOURCE TEXT
  VALUE
 
0690 B300      02053         BTFSC   (_all_param + 5), 1, B
0692 2A00      02054         INCF    r0x00, F
0694 0E01      02055         MOVLW   0x01
0696 1A00      02056         XORWF   r0x00, F
0698 5000      02057         MOVF    r0x00, W
069A 0B01      02058         ANDLW   0x01
069C 44E8      02059         RLNCF   WREG, W
069E 6EF4      02060         MOVWF   PRODH
               02061 ; removed redundant BANKSEL
06A0 5100      02062         MOVF    (_all_param + 5), W, B
06A2 0BFD      02063         ANDLW   0xfd
06A4 10F4      02064         IORWF   PRODH, W
               02065 ; removed redundant BANKSEL
06A6 6F00      02066         MOVWF   (_all_param + 5), B
               02067         .line   428; main.c     MIOS_DOUT_PinGet(26) ? MIOS_DOUT_PinSet(26, 0) : MIOS_DOUT_PinSet(26, 1);
06A8 0E1A      02068         MOVLW   0x1a
06AA EC00 F000 02069         CALL    _MIOS_DOUT_PinGet
06AE 6E00      02070         MOVWF   r0x00
06B0 5000      02071         MOVF    r0x00, W
06B2 E000      02072         BZ      _00400_DS_
06B4 0E00      02073         MOVLW   0x00
06B6 6EED      02074         MOVWF   POSTDEC1
06B8 0E1A      02075         MOVLW   0x1a
06BA EC00 F000 02076         CALL    _MIOS_DOUT_PinSet
06BE 2AE9      02077         INCF    FSR1L, F
06C0 EF00 F000 02078         GOTO    _00376_DS_
06C4           02079 _00400_DS_:
06C4 0E01      02080         MOVLW   0x01
06C6 6EED      02081         MOVWF   POSTDEC1
06C8 0E1A      02082         MOVLW   0x1a
06CA EC00 F000 02083         CALL    _MIOS_DOUT_PinSet
06CE 2AE9      02084         INCF    FSR1L, F
               02085         .line   430; main.c     break;
06D0 EF00 F000 02086         GOTO    _00376_DS_
06D4           02087 _00261_DS_:
               02088         .line   433; main.c     if( !pin_value ) {
06D4 5000      02089         MOVF    r0x01, W
06D6 A4D8      02090         BTFSS   STATUS, 2
06D8 EF00 F000 02091         GOTO    _00376_DS_
06DC 0000      02092         BANKSEL (_all_param + 6)
               02093         .line   434; main.c     all_param.router_flags_eg_v2s.ALL_flags_eg_v2s ^= all_param.eg_select ;
06DE 5100      02094         MOVF    (_all_param + 6), W, B
06E0 0BFF      02095         ANDLW   0xff
06E2 6E00      02096         MOVWF   r0x00
               02097 ; removed redundant BANKSEL
06E4 5100      02098         MOVF    (_all_param + 38), W, B
06E6 1A00      02099         XORWF   r0x00, F
06E8 5000      02100         MOVF    r0x00, W
               02101 ; removed redundant BANKSEL
06EA 6F00      02102         MOVWF   (_all_param + 6), B
               02103         .line   435; main.c     MIOS_DOUT_PinGet(27) ? MIOS_DOUT_PinSet(27, 0) : MIOS_DOUT_PinSet(27, 1);}
06EC 0E1B      02104         MOVLW   0x1b
06EE EC00 F000 02105         CALL    _MIOS_DOUT_PinGet
06F2 6E00      02106         MOVWF   r0x00
gpasm-0.13.6 beta               _output/main__mios-gpasm-tmp.asm7-10-2008  15:16:01          PAGE 40


LOC  OBJECT CODE     LINE SOURCE TEXT
  VALUE
 
06F4 5000      02107         MOVF    r0x00, W
06F6 E000      02108         BZ      _00402_DS_
06F8 0E00      02109         MOVLW   0x00
06FA 6EED      02110         MOVWF   POSTDEC1
06FC 0E1B      02111         MOVLW   0x1b
06FE EC00 F000 02112         CALL    _MIOS_DOUT_PinSet
0702 2AE9      02113         INCF    FSR1L, F
0704 EF00 F000 02114         GOTO    _00376_DS_
0708           02115 _00402_DS_:
0708 0E01      02116         MOVLW   0x01
070A 6EED      02117         MOVWF   POSTDEC1
070C 0E1B      02118         MOVLW   0x1b
070E EC00 F000 02119         CALL    _MIOS_DOUT_PinSet
0712 2AE9      02120         INCF    FSR1L, F
               02121         .line   436; main.c     break;
0714 EF00 F000 02122         GOTO    _00376_DS_
0718           02123 _00264_DS_:
               02124         .line   439; main.c     if(!pin_value ) {
0718 5000      02125         MOVF    r0x01, W
071A A4D8      02126         BTFSS   STATUS, 2
071C EF00 F000 02127         GOTO    _00376_DS_
0720 0000      02128         BANKSEL (_all_param + 8)
               02129         .line   440; main.c     all_param.router_flags_Eg_to_lfo1.Eg_to_lfo1 ^= all_param.eg_select;
0722 5100      02130         MOVF    (_all_param + 8), W, B
0724 0B0F      02131         ANDLW   0x0f
0726 6E00      02132         MOVWF   r0x00
               02133 ; removed redundant BANKSEL
0728 5100      02134         MOVF    (_all_param + 38), W, B
072A 1A00      02135         XORWF   r0x00, F
072C 5000      02136         MOVF    r0x00, W
072E 0B0F      02137         ANDLW   0x0f
0730 6EF4      02138         MOVWF   PRODH
               02139 ; removed redundant BANKSEL
0732 5100      02140         MOVF    (_all_param + 8), W, B
0734 0BF0      02141         ANDLW   0xf0
0736 10F4      02142         IORWF   PRODH, W
               02143 ; removed redundant BANKSEL
0738 6F00      02144         MOVWF   (_all_param + 8), B
               02145         .line   441; main.c     MIOS_DOUT_PinGet(28) ? MIOS_DOUT_PinSet(28, 0) : MIOS_DOUT_PinSet(28, 1); }
073A 0E1C      02146         MOVLW   0x1c
073C EC00 F000 02147         CALL    _MIOS_DOUT_PinGet
0740 6E00      02148         MOVWF   r0x00
0742 5000      02149         MOVF    r0x00, W
0744 E000      02150         BZ      _00404_DS_
0746 0E00      02151         MOVLW   0x00
0748 6EED      02152         MOVWF   POSTDEC1
074A 0E1C      02153         MOVLW   0x1c
074C EC00 F000 02154         CALL    _MIOS_DOUT_PinSet
0750 2AE9      02155         INCF    FSR1L, F
0752 EF00 F000 02156         GOTO    _00376_DS_
0756           02157 _00404_DS_:
0756 0E01      02158         MOVLW   0x01
0758 6EED      02159         MOVWF   POSTDEC1
075A 0E1C      02160         MOVLW   0x1c
gpasm-0.13.6 beta               _output/main__mios-gpasm-tmp.asm7-10-2008  15:16:01          PAGE 41


LOC  OBJECT CODE     LINE SOURCE TEXT
  VALUE
 
075C EC00 F000 02161         CALL    _MIOS_DOUT_PinSet
0760 2AE9      02162         INCF    FSR1L, F
               02163         .line   442; main.c     break;
0762 EF00 F000 02164         GOTO    _00376_DS_
0766           02165 _00267_DS_:
               02166         .line   445; main.c     if(!pin_value ) {
0766 5000      02167         MOVF    r0x01, W
0768 A4D8      02168         BTFSS   STATUS, 2
076A EF00 F000 02169         GOTO    _00376_DS_
076E 0000      02170         BANKSEL (_all_param + 9)
               02171         .line   446; main.c     all_param.router_flags_Eg_to_lfo2.Eg_to_lfo2 ^= all_param.eg_select;
0770 5100      02172         MOVF    (_all_param + 9), W, B
0772 0B0F      02173         ANDLW   0x0f
0774 6E00      02174         MOVWF   r0x00
               02175 ; removed redundant BANKSEL
0776 5100      02176         MOVF    (_all_param + 38), W, B
0778 1A00      02177         XORWF   r0x00, F
077A 5000      02178         MOVF    r0x00, W
077C 0B0F      02179         ANDLW   0x0f
077E 6EF4      02180         MOVWF   PRODH
               02181 ; removed redundant BANKSEL
0780 5100      02182         MOVF    (_all_param + 9), W, B
0782 0BF0      02183         ANDLW   0xf0
0784 10F4      02184         IORWF   PRODH, W
               02185 ; removed redundant BANKSEL
0786 6F00      02186         MOVWF   (_all_param + 9), B
               02187         .line   447; main.c     MIOS_DOUT_PinGet(29) ? MIOS_DOUT_PinSet(29, 0) : MIOS_DOUT_PinSet(29, 1); }
0788 0E1D      02188         MOVLW   0x1d
078A EC00 F000 02189         CALL    _MIOS_DOUT_PinGet
078E 6E00      02190         MOVWF   r0x00
0790 5000      02191         MOVF    r0x00, W
0792 E000      02192         BZ      _00406_DS_
0794 0E00      02193         MOVLW   0x00
0796 6EED      02194         MOVWF   POSTDEC1
0798 0E1D      02195         MOVLW   0x1d
079A EC00 F000 02196         CALL    _MIOS_DOUT_PinSet
079E 2AE9      02197         INCF    FSR1L, F
07A0 EF00 F000 02198         GOTO    _00376_DS_
07A4           02199 _00406_DS_:
07A4 0E01      02200         MOVLW   0x01
07A6 6EED      02201         MOVWF   POSTDEC1
07A8 0E1D      02202         MOVLW   0x1d
07AA EC00 F000 02203         CALL    _MIOS_DOUT_PinSet
07AE 2AE9      02204         INCF    FSR1L, F
               02205         .line   448; main.c     break;
07B0 EF00 F000 02206         GOTO    _00376_DS_
07B4           02207 _00270_DS_:
               02208         .line   451; main.c     if(!pin_value ) {
07B4 5000      02209         MOVF    r0x01, W
07B6 A4D8      02210         BTFSS   STATUS, 2
07B8 EF00 F000 02211         GOTO    _00376_DS_
07BC 0000      02212         BANKSEL (_all_param + 10)
               02213         .line   452; main.c     all_param.router_flags_Eg_to_lfo3.Eg_to_lfo3 ^= all_param.eg_select;
07BE 5100      02214         MOVF    (_all_param + 10), W, B
gpasm-0.13.6 beta               _output/main__mios-gpasm-tmp.asm7-10-2008  15:16:01          PAGE 42


LOC  OBJECT CODE     LINE SOURCE TEXT
  VALUE
 
07C0 0B0F      02215         ANDLW   0x0f
07C2 6E00      02216         MOVWF   r0x00
               02217 ; removed redundant BANKSEL
07C4 5100      02218         MOVF    (_all_param + 38), W, B
07C6 1A00      02219         XORWF   r0x00, F
07C8 5000      02220         MOVF    r0x00, W
07CA 0B0F      02221         ANDLW   0x0f
07CC 6EF4      02222         MOVWF   PRODH
               02223 ; removed redundant BANKSEL
07CE 5100      02224         MOVF    (_all_param + 10), W, B
07D0 0BF0      02225         ANDLW   0xf0
07D2 10F4      02226         IORWF   PRODH, W
               02227 ; removed redundant BANKSEL
07D4 6F00      02228         MOVWF   (_all_param + 10), B
               02229         .line   453; main.c     MIOS_DOUT_PinGet(30) ? MIOS_DOUT_PinSet(30, 0) : MIOS_DOUT_PinSet(30, 1);}
07D6 0E1E      02230         MOVLW   0x1e
07D8 EC00 F000 02231         CALL    _MIOS_DOUT_PinGet
07DC 6E00      02232         MOVWF   r0x00
07DE 5000      02233         MOVF    r0x00, W
07E0 E000      02234         BZ      _00408_DS_
07E2 0E00      02235         MOVLW   0x00
07E4 6EED      02236         MOVWF   POSTDEC1
07E6 0E1E      02237         MOVLW   0x1e
07E8 EC00 F000 02238         CALL    _MIOS_DOUT_PinSet
07EC 2AE9      02239         INCF    FSR1L, F
07EE EF00 F000 02240         GOTO    _00376_DS_
07F2           02241 _00408_DS_:
07F2 0E01      02242         MOVLW   0x01
07F4 6EED      02243         MOVWF   POSTDEC1
07F6 0E1E      02244         MOVLW   0x1e
07F8 EC00 F000 02245         CALL    _MIOS_DOUT_PinSet
07FC 2AE9      02246         INCF    FSR1L, F
               02247         .line   454; main.c     break;
07FE EF00 F000 02248         GOTO    _00376_DS_
0802           02249 _00273_DS_:
               02250         .line   457; main.c     if( !pin_value ) {
0802 5000      02251         MOVF    r0x01, W
0804 A4D8      02252         BTFSS   STATUS, 2
0806 EF00 F000 02253         GOTO    _00376_DS_
080A 0000      02254         BANKSEL (_all_param + 7)
               02255         .line   458; main.c     all_param.router_flags_eg_audio_trig.ALL_flags_eg_audio_trig ^= all_param.eg_select ;
080C 5100      02256         MOVF    (_all_param + 7), W, B
080E 0BFF      02257         ANDLW   0xff
0810 6E00      02258         MOVWF   r0x00
               02259 ; removed redundant BANKSEL
0812 5100      02260         MOVF    (_all_param + 38), W, B
0814 1A00      02261         XORWF   r0x00, F
0816 5000      02262         MOVF    r0x00, W
               02263 ; removed redundant BANKSEL
0818 6F00      02264         MOVWF   (_all_param + 7), B
               02265         .line   459; main.c     MIOS_DOUT_PinGet(31) ? MIOS_DOUT_PinSet(31, 0) : MIOS_DOUT_PinSet(31, 1);}
081A 0E1F      02266         MOVLW   0x1f
081C EC00 F000 02267         CALL    _MIOS_DOUT_PinGet
0820 6E00      02268         MOVWF   r0x00
gpasm-0.13.6 beta               _output/main__mios-gpasm-tmp.asm7-10-2008  15:16:01          PAGE 43


LOC  OBJECT CODE     LINE SOURCE TEXT
  VALUE
 
0822 5000      02269         MOVF    r0x00, W
0824 E000      02270         BZ      _00410_DS_
0826 0E00      02271         MOVLW   0x00
0828 6EED      02272         MOVWF   POSTDEC1
082A 0E1F      02273         MOVLW   0x1f
082C EC00 F000 02274         CALL    _MIOS_DOUT_PinSet
0830 2AE9      02275         INCF    FSR1L, F
0832 EF00 F000 02276         GOTO    _00376_DS_
0836           02277 _00410_DS_:
0836 0E01      02278         MOVLW   0x01
0838 6EED      02279         MOVWF   POSTDEC1
083A 0E1F      02280         MOVLW   0x1f
083C EC00 F000 02281         CALL    _MIOS_DOUT_PinSet
0840 2AE9      02282         INCF    FSR1L, F
               02283         .line   460; main.c     break;
0842 EF00 F000 02284         GOTO    _00376_DS_
0846           02285 _00276_DS_:
               02286         .line   463; main.c     if( !pin_value ) {
0846 5000      02287         MOVF    r0x01, W
0848 A4D8      02288         BTFSS   STATUS, 2
084A EF00 F000 02289         GOTO    _00376_DS_
               02290         .line   464; main.c     all_param.router_flags_system.twin_mode ^= 1;
084E 6A00      02291         CLRF    r0x00
0850 0000      02292         BANKSEL (_all_param + 11)
0852 B100      02293         BTFSC   (_all_param + 11), 0, B
0854 2A00      02294         INCF    r0x00, F
0856 0E01      02295         MOVLW   0x01
0858 1A00      02296         XORWF   r0x00, F
085A 5000      02297         MOVF    r0x00, W
085C 0B01      02298         ANDLW   0x01
085E 6EF4      02299         MOVWF   PRODH
               02300 ; removed redundant BANKSEL
0860 5100      02301         MOVF    (_all_param + 11), W, B
0862 0BFE      02302         ANDLW   0xfe
0864 10F4      02303         IORWF   PRODH, W
               02304 ; removed redundant BANKSEL
0866 6F00      02305         MOVWF   (_all_param + 11), B
               02306         .line   465; main.c     MIOS_DOUT_PinGet(40) ? MIOS_DOUT_PinSet(40, 0) : MIOS_DOUT_PinSet(40, 1);}
0868 0E28      02307         MOVLW   0x28
086A EC00 F000 02308         CALL    _MIOS_DOUT_PinGet
086E 6E00      02309         MOVWF   r0x00
0870 5000      02310         MOVF    r0x00, W
0872 E000      02311         BZ      _00412_DS_
0874 0E00      02312         MOVLW   0x00
0876 6EED      02313         MOVWF   POSTDEC1
0878 0E28      02314         MOVLW   0x28
087A EC00 F000 02315         CALL    _MIOS_DOUT_PinSet
087E 2AE9      02316         INCF    FSR1L, F
0880 EF00 F000 02317         GOTO    _00376_DS_
0884           02318 _00412_DS_:
0884 0E01      02319         MOVLW   0x01
0886 6EED      02320         MOVWF   POSTDEC1
0888 0E28      02321         MOVLW   0x28
088A EC00 F000 02322         CALL    _MIOS_DOUT_PinSet
gpasm-0.13.6 beta               _output/main__mios-gpasm-tmp.asm7-10-2008  15:16:01          PAGE 44


LOC  OBJECT CODE     LINE SOURCE TEXT
  VALUE
 
088E 2AE9      02323         INCF    FSR1L, F
               02324         .line   466; main.c     break;
0890 EF00 F000 02325         GOTO    _00376_DS_
0894           02326 _00279_DS_:
               02327         .line   469; main.c     if( !pin_value ) {
0894 5000      02328         MOVF    r0x01, W
0896 A4D8      02329         BTFSS   STATUS, 2
0898 EF00 F000 02330         GOTO    _00376_DS_
               02331         .line   470; main.c     all_param.router_flags_system.midi_mode ^= 1;
089C 6A00      02332         CLRF    r0x00
089E 0000      02333         BANKSEL (_all_param + 11)
08A0 B300      02334         BTFSC   (_all_param + 11), 1, B
08A2 2A00      02335         INCF    r0x00, F
08A4 0E01      02336         MOVLW   0x01
08A6 1A00      02337         XORWF   r0x00, F
08A8 5000      02338         MOVF    r0x00, W
08AA 0B01      02339         ANDLW   0x01
08AC 44E8      02340         RLNCF   WREG, W
08AE 6EF4      02341         MOVWF   PRODH
               02342 ; removed redundant BANKSEL
08B0 5100      02343         MOVF    (_all_param + 11), W, B
08B2 0BFD      02344         ANDLW   0xfd
08B4 10F4      02345         IORWF   PRODH, W
               02346 ; removed redundant BANKSEL
08B6 6F00      02347         MOVWF   (_all_param + 11), B
               02348         .line   471; main.c     MIOS_DOUT_PinGet(41) ? MIOS_DOUT_PinSet(41, 0) : MIOS_DOUT_PinSet(41, 1); }
08B8 0E29      02349         MOVLW   0x29
08BA EC00 F000 02350         CALL    _MIOS_DOUT_PinGet
08BE 6E00      02351         MOVWF   r0x00
08C0 5000      02352         MOVF    r0x00, W
08C2 E000      02353         BZ      _00414_DS_
08C4 0E00      02354         MOVLW   0x00
08C6 6EED      02355         MOVWF   POSTDEC1
08C8 0E29      02356         MOVLW   0x29
08CA EC00 F000 02357         CALL    _MIOS_DOUT_PinSet
08CE 2AE9      02358         INCF    FSR1L, F
08D0 EF00 F000 02359         GOTO    _00376_DS_
08D4           02360 _00414_DS_:
08D4 0E01      02361         MOVLW   0x01
08D6 6EED      02362         MOVWF   POSTDEC1
08D8 0E29      02363         MOVLW   0x29
08DA EC00 F000 02364         CALL    _MIOS_DOUT_PinSet
08DE 2AE9      02365         INCF    FSR1L, F
               02366         .line   472; main.c     break;
08E0 EF00 F000 02367         GOTO    _00376_DS_
08E4           02368 _00282_DS_:
               02369         .line   475; main.c     if(!pin_value ) {
08E4 5000      02370         MOVF    r0x01, W
08E6 A4D8      02371         BTFSS   STATUS, 2
08E8 EF00 F000 02372         GOTO    _00376_DS_
08EC 0000      02373         BANKSEL (_all_param + 11)
               02374         .line   476; main.c     if( all_param.router_flags_system.ttl_switch1 ) { //0 = eg1 -- 1 = eg3
08EE A500      02375         BTFSS   (_all_param + 11), 2, B
08F0 D000      02376         BRA     _00284_DS_
gpasm-0.13.6 beta               _output/main__mios-gpasm-tmp.asm7-10-2008  15:16:01          PAGE 45


LOC  OBJECT CODE     LINE SOURCE TEXT
  VALUE
 
               02377         .line   477; main.c     MIOS_DOUT_PinSet(35, 0);
08F2 0E00      02378         MOVLW   0x00
08F4 6EED      02379         MOVWF   POSTDEC1
08F6 0E23      02380         MOVLW   0x23
08F8 EC00 F000 02381         CALL    _MIOS_DOUT_PinSet
08FC 2AE9      02382         INCF    FSR1L, F
               02383         .line   478; main.c     MIOS_DOUT_PinSet(33, 0);
08FE 0E00      02384         MOVLW   0x00
0900 6EED      02385         MOVWF   POSTDEC1
0902 0E21      02386         MOVLW   0x21
0904 EC00 F000 02387         CALL    _MIOS_DOUT_PinSet
0908 2AE9      02388         INCF    FSR1L, F
               02389         .line   479; main.c     MIOS_DOUT_PinSet(32, 1);
090A 0E01      02390         MOVLW   0x01
090C 6EED      02391         MOVWF   POSTDEC1
090E 0E20      02392         MOVLW   0x20
0910 EC00 F000 02393         CALL    _MIOS_DOUT_PinSet
0914 2AE9      02394         INCF    FSR1L, F
               02395         .line   480; main.c     MIOS_DOUT_PinSet(34, 1);
0916 0E01      02396         MOVLW   0x01
0918 6EED      02397         MOVWF   POSTDEC1
091A 0E22      02398         MOVLW   0x22
091C EC00 F000 02399         CALL    _MIOS_DOUT_PinSet
0920 2AE9      02400         INCF    FSR1L, F
0922 0000      02401         BANKSEL (_all_param + 11)
               02402         .line   481; main.c     all_param.router_flags_system.ttl_switch1 = 0;
0924 9500      02403         BCF     (_all_param + 11), 2, B
               02404         .line   482; main.c     break; }
0926 EF00 F000 02405         GOTO    _00376_DS_
092A           02406 _00284_DS_:
               02407         .line   485; main.c     MIOS_DOUT_PinSet(34, 0);
092A 0E00      02408         MOVLW   0x00
092C 6EED      02409         MOVWF   POSTDEC1
092E 0E22      02410         MOVLW   0x22
0930 EC00 F000 02411         CALL    _MIOS_DOUT_PinSet
0934 2AE9      02412         INCF    FSR1L, F
               02413         .line   486; main.c     MIOS_DOUT_PinSet(32, 0);
0936 0E00      02414         MOVLW   0x00
0938 6EED      02415         MOVWF   POSTDEC1
093A 0E20      02416         MOVLW   0x20
093C EC00 F000 02417         CALL    _MIOS_DOUT_PinSet
0940 2AE9      02418         INCF    FSR1L, F
               02419         .line   487; main.c     MIOS_DOUT_PinSet(33, 1);
0942 0E01      02420         MOVLW   0x01
0944 6EED      02421         MOVWF   POSTDEC1
0946 0E21      02422         MOVLW   0x21
0948 EC00 F000 02423         CALL    _MIOS_DOUT_PinSet
094C 2AE9      02424         INCF    FSR1L, F
               02425         .line   488; main.c     MIOS_DOUT_PinSet(35, 1);
094E 0E01      02426         MOVLW   0x01
0950 6EED      02427         MOVWF   POSTDEC1
0952 0E23      02428         MOVLW   0x23
0954 EC00 F000 02429         CALL    _MIOS_DOUT_PinSet
0958 2AE9      02430         INCF    FSR1L, F
gpasm-0.13.6 beta               _output/main__mios-gpasm-tmp.asm7-10-2008  15:16:01          PAGE 46


LOC  OBJECT CODE     LINE SOURCE TEXT
  VALUE
 
095A 0000      02431         BANKSEL (_all_param + 11)
               02432         .line   489; main.c     all_param.router_flags_system.ttl_switch1 = 1; } }
095C 8500      02433         BSF     (_all_param + 11), 2, B
               02434         .line   490; main.c     break;
095E EF00 F000 02435         GOTO    _00376_DS_
0962           02436 _00288_DS_:
               02437         .line   493; main.c     if(!pin_value ) {
0962 5000      02438         MOVF    r0x01, W
0964 A4D8      02439         BTFSS   STATUS, 2
0966 EF00 F000 02440         GOTO    _00376_DS_
096A 0000      02441         BANKSEL (_all_param + 11)
               02442         .line   494; main.c     if( all_param.router_flags_system.ttl_switch2 ) {
096C A700      02443         BTFSS   (_all_param + 11), 3, B
096E D000      02444         BRA     _00290_DS_
               02445         .line   495; main.c     MIOS_DOUT_PinSet(39, 0);
0970 0E00      02446         MOVLW   0x00
0972 6EED      02447         MOVWF   POSTDEC1
0974 0E27      02448         MOVLW   0x27
0976 EC00 F000 02449         CALL    _MIOS_DOUT_PinSet
097A 2AE9      02450         INCF    FSR1L, F
               02451         .line   496; main.c     MIOS_DOUT_PinSet(37, 0);
097C 0E00      02452         MOVLW   0x00
097E 6EED      02453         MOVWF   POSTDEC1
0980 0E25      02454         MOVLW   0x25
0982 EC00 F000 02455         CALL    _MIOS_DOUT_PinSet
0986 2AE9      02456         INCF    FSR1L, F
               02457         .line   497; main.c     MIOS_DOUT_PinSet(36, 1);
0988 0E01      02458         MOVLW   0x01
098A 6EED      02459         MOVWF   POSTDEC1
098C 0E24      02460         MOVLW   0x24
098E EC00 F000 02461         CALL    _MIOS_DOUT_PinSet
0992 2AE9      02462         INCF    FSR1L, F
               02463         .line   498; main.c     MIOS_DOUT_PinSet(38, 1);
0994 0E01      02464         MOVLW   0x01
0996 6EED      02465         MOVWF   POSTDEC1
0998 0E26      02466         MOVLW   0x26
099A EC00 F000 02467         CALL    _MIOS_DOUT_PinSet
099E 2AE9      02468         INCF    FSR1L, F
09A0 0000      02469         BANKSEL (_all_param + 11)
               02470         .line   499; main.c     all_param.router_flags_system.ttl_switch2 = 0;
09A2 9700      02471         BCF     (_all_param + 11), 3, B
               02472         .line   500; main.c     break; }
09A4 EF00 F000 02473         GOTO    _00376_DS_
09A8           02474 _00290_DS_:
               02475         .line   503; main.c     MIOS_DOUT_PinSet(38, 0);
09A8 0E00      02476         MOVLW   0x00
09AA 6EED      02477         MOVWF   POSTDEC1
09AC 0E26      02478         MOVLW   0x26
09AE EC00 F000 02479         CALL    _MIOS_DOUT_PinSet
09B2 2AE9      02480         INCF    FSR1L, F
               02481         .line   504; main.c     MIOS_DOUT_PinSet(36, 0);
09B4 0E00      02482         MOVLW   0x00
09B6 6EED      02483         MOVWF   POSTDEC1
09B8 0E24      02484         MOVLW   0x24
gpasm-0.13.6 beta               _output/main__mios-gpasm-tmp.asm7-10-2008  15:16:01          PAGE 47


LOC  OBJECT CODE     LINE SOURCE TEXT
  VALUE
 
09BA EC00 F000 02485         CALL    _MIOS_DOUT_PinSet
09BE 2AE9      02486         INCF    FSR1L, F
               02487         .line   505; main.c     MIOS_DOUT_PinSet(37, 1);
09C0 0E01      02488         MOVLW   0x01
09C2 6EED      02489         MOVWF   POSTDEC1
09C4 0E25      02490         MOVLW   0x25
09C6 EC00 F000 02491         CALL    _MIOS_DOUT_PinSet
09CA 2AE9      02492         INCF    FSR1L, F
               02493         .line   506; main.c     MIOS_DOUT_PinSet(39, 1);
09CC 0E01      02494         MOVLW   0x01
09CE 6EED      02495         MOVWF   POSTDEC1
09D0 0E27      02496         MOVLW   0x27
09D2 EC00 F000 02497         CALL    _MIOS_DOUT_PinSet
09D6 2AE9      02498         INCF    FSR1L, F
09D8 0000      02499         BANKSEL (_all_param + 11)
               02500         .line   507; main.c     all_param.router_flags_system.ttl_switch2 = 1;}}
09DA 8700      02501         BSF     (_all_param + 11), 3, B
               02502         .line   508; main.c     break;
09DC EF00 F000 02503         GOTO    _00376_DS_
09E0           02504 _00294_DS_:
               02505         .line   512; main.c     if(!pin_value ) {
09E0 5000      02506         MOVF    r0x01, W
09E2 A4D8      02507         BTFSS   STATUS, 2
09E4 EF00 F000 02508         GOTO    _00376_DS_
               02509         .line   513; main.c     app_flags.save_on ^= 1;
09E8 6A00      02510         CLRF    r0x00
09EA 0000      02511         BANKSEL _app_flags
09EC B700      02512         BTFSC   _app_flags, 3, B
09EE 2A00      02513         INCF    r0x00, F
09F0 0E01      02514         MOVLW   0x01
09F2 1A00      02515         XORWF   r0x00, F
09F4 5000      02516         MOVF    r0x00, W
09F6 0B01      02517         ANDLW   0x01
09F8 38E8      02518         SWAPF   WREG, W
09FA 40E8      02519         RRNCF   WREG, W
09FC 6EF4      02520         MOVWF   PRODH
               02521 ; removed redundant BANKSEL
09FE 5100      02522         MOVF    _app_flags, W, B
0A00 0BF7      02523         ANDLW   0xf7
0A02 10F4      02524         IORWF   PRODH, W
               02525 ; removed redundant BANKSEL
0A04 6F00      02526         MOVWF   _app_flags, B
               02527         .line   514; main.c     app_flags.DISPLAY_UPDATE_REQ = 1;}
0A06 8500      02528         BSF     _app_flags, 2, B
               02529         .line   515; main.c     break;
0A08 EF00 F000 02530         GOTO    _00376_DS_
0A0C           02531 _00297_DS_:
               02532         .line   518; main.c     if(!pin_value ) {
0A0C 5000      02533         MOVF    r0x01, W
0A0E A4D8      02534         BTFSS   STATUS, 2
0A10 EF00 F000 02535         GOTO    _00376_DS_
               02536 ; ;;!!! pic16_aopOp:1070 called for a spillLocation -- assigning WREG instead --- CHECK
               02537         .line   519; main.c     all_param.eg_select << 1;
0A14 C000 FFE8 02538         MOVFF   (_all_param + 38), WREG
gpasm-0.13.6 beta               _output/main__mios-gpasm-tmp.asm7-10-2008  15:16:01          PAGE 48


LOC  OBJECT CODE     LINE SOURCE TEXT
  VALUE
 
               02539         .line   520; main.c     if (all_param.eg_select > 8 ) {
0A18 0E09      02540         MOVLW   0x09
0A1A 0000      02541         BANKSEL (_all_param + 38)
0A1C 5D00      02542         SUBWF   (_all_param + 38), W, B
0A1E E300      02543         BNC     _00299_DS_
               02544         .line   521; main.c     all_param.eg_select = 1; }
0A20 0E01      02545         MOVLW   0x01
               02546 ; removed redundant BANKSEL
0A22 6F00      02547         MOVWF   (_all_param + 38), B
0A24           02548 _00299_DS_:
               02549         .line   522; main.c     sr_temp = MIOS_DOUT_SRGet(5);
0A24 0E05      02550         MOVLW   0x05
0A26 EC00 F000 02551         CALL    _MIOS_DOUT_SRGet
0A2A 6E00      02552         MOVWF   r0x00
               02553         .line   523; main.c     sr_temp &= 0xf0;
0A2C 0EF0      02554         MOVLW   0xf0
0A2E 1600      02555         ANDWF   r0x00, F
0A30 0000      02556         BANKSEL (_all_param + 38)
               02557         .line   524; main.c     sr_temp |= all_param.eg_select;
0A32 5100      02558         MOVF    (_all_param + 38), W, B
0A34 1200      02559         IORWF   r0x00, F
               02560         .line   525; main.c     MIOS_DOUT_SRSet(5, sr_temp);
0A36 5000      02561         MOVF    r0x00, W
0A38 6EED      02562         MOVWF   POSTDEC1
0A3A 0E05      02563         MOVLW   0x05
0A3C EC00 F000 02564         CALL    _MIOS_DOUT_SRSet
0A40 2AE9      02565         INCF    FSR1L, F
0A42 0000      02566         BANKSEL (_all_param + 3)
               02567         .line   527; main.c     if(all_param.router_flags_lfo1_att.ALL_flags_lfo1_att & all_param.eg_select){
0A44 5100      02568         MOVF    (_all_param + 3), W, B
0A46 0BFF      02569         ANDLW   0xff
0A48 6E00      02570         MOVWF   r0x02
               02571 ; removed redundant BANKSEL
0A4A 5100      02572         MOVF    (_all_param + 38), W, B
0A4C 1600      02573         ANDWF   r0x02, F
0A4E 5000      02574         MOVF    r0x02, W
0A50 E000      02575         BZ      _00301_DS_
               02576         .line   528; main.c     MIOS_DOUT_PinSet(24, 1);  }
0A52 0E01      02577         MOVLW   0x01
0A54 6EED      02578         MOVWF   POSTDEC1
0A56 0E18      02579         MOVLW   0x18
0A58 EC00 F000 02580         CALL    _MIOS_DOUT_PinSet
0A5C 2AE9      02581         INCF    FSR1L, F
0A5E D000      02582         BRA     _00302_DS_
0A60           02583 _00301_DS_:
               02584         .line   530; main.c     MIOS_DOUT_PinSet(24, 0);  }
0A60 0E00      02585         MOVLW   0x00
0A62 6EED      02586         MOVWF   POSTDEC1
0A64 0E18      02587         MOVLW   0x18
0A66 EC00 F000 02588         CALL    _MIOS_DOUT_PinSet
0A6A 2AE9      02589         INCF    FSR1L, F
0A6C           02590 _00302_DS_:
0A6C 0000      02591         BANKSEL (_all_param + 4)
               02592         .line   531; main.c     if (all_param.router_flags_lfo1_dec.ALL_flags_lfo1_dec & all_param.eg_select)  {
gpasm-0.13.6 beta               _output/main__mios-gpasm-tmp.asm7-10-2008  15:16:01          PAGE 49


LOC  OBJECT CODE     LINE SOURCE TEXT
  VALUE
 
0A6E 5100      02593         MOVF    (_all_param + 4), W, B
0A70 0BFF      02594         ANDLW   0xff
0A72 6E00      02595         MOVWF   r0x02
               02596 ; removed redundant BANKSEL
0A74 5100      02597         MOVF    (_all_param + 38), W, B
0A76 1600      02598         ANDWF   r0x02, F
0A78 5000      02599         MOVF    r0x02, W
0A7A E000      02600         BZ      _00304_DS_
               02601         .line   532; main.c     MIOS_DOUT_PinSet(25, 1); }
0A7C 0E01      02602         MOVLW   0x01
0A7E 6EED      02603         MOVWF   POSTDEC1
0A80 0E19      02604         MOVLW   0x19
0A82 EC00 F000 02605         CALL    _MIOS_DOUT_PinSet
0A86 2AE9      02606         INCF    FSR1L, F
0A88 D000      02607         BRA     _00305_DS_
0A8A           02608 _00304_DS_:
               02609         .line   534; main.c     MIOS_DOUT_PinSet(25, 0);}
0A8A 0E00      02610         MOVLW   0x00
0A8C 6EED      02611         MOVWF   POSTDEC1
0A8E 0E19      02612         MOVLW   0x19
0A90 EC00 F000 02613         CALL    _MIOS_DOUT_PinSet
0A94 2AE9      02614         INCF    FSR1L, F
0A96           02615 _00305_DS_:
0A96 0000      02616         BANKSEL (_all_param + 8)
               02617         .line   535; main.c     if (all_param.router_flags_Eg_to_lfo1.Eg_to_lfo1 & all_param.eg_select)  {
0A98 5100      02618         MOVF    (_all_param + 8), W, B
0A9A 0B0F      02619         ANDLW   0x0f
0A9C 6E00      02620         MOVWF   r0x02
               02621 ; removed redundant BANKSEL
0A9E 5100      02622         MOVF    (_all_param + 38), W, B
0AA0 1600      02623         ANDWF   r0x02, F
0AA2 5000      02624         MOVF    r0x02, W
0AA4 E000      02625         BZ      _00307_DS_
               02626         .line   536; main.c     MIOS_DOUT_PinSet(28, 1); }
0AA6 0E01      02627         MOVLW   0x01
0AA8 6EED      02628         MOVWF   POSTDEC1
0AAA 0E1C      02629         MOVLW   0x1c
0AAC EC00 F000 02630         CALL    _MIOS_DOUT_PinSet
0AB0 2AE9      02631         INCF    FSR1L, F
0AB2 D000      02632         BRA     _00308_DS_
0AB4           02633 _00307_DS_:
               02634         .line   538; main.c     MIOS_DOUT_PinSet(28, 0);}
0AB4 0E00      02635         MOVLW   0x00
0AB6 6EED      02636         MOVWF   POSTDEC1
0AB8 0E1C      02637         MOVLW   0x1c
0ABA EC00 F000 02638         CALL    _MIOS_DOUT_PinSet
0ABE 2AE9      02639         INCF    FSR1L, F
0AC0           02640 _00308_DS_:
0AC0 0000      02641         BANKSEL (_all_param + 9)
               02642         .line   539; main.c     if (all_param.router_flags_Eg_to_lfo2.Eg_to_lfo2 & all_param.eg_select)  {
0AC2 5100      02643         MOVF    (_all_param + 9), W, B
0AC4 0B0F      02644         ANDLW   0x0f
0AC6 6E00      02645         MOVWF   r0x02
               02646 ; removed redundant BANKSEL
gpasm-0.13.6 beta               _output/main__mios-gpasm-tmp.asm7-10-2008  15:16:01          PAGE 50


LOC  OBJECT CODE     LINE SOURCE TEXT
  VALUE
 
0AC8 5100      02647         MOVF    (_all_param + 38), W, B
0ACA 1600      02648         ANDWF   r0x02, F
0ACC 5000      02649         MOVF    r0x02, W
0ACE E000      02650         BZ      _00310_DS_
               02651         .line   540; main.c     MIOS_DOUT_PinSet(29, 1); }
0AD0 0E01      02652         MOVLW   0x01
0AD2 6EED      02653         MOVWF   POSTDEC1
0AD4 0E1D      02654         MOVLW   0x1d
0AD6 EC00 F000 02655         CALL    _MIOS_DOUT_PinSet
0ADA 2AE9      02656         INCF    FSR1L, F
0ADC D000      02657         BRA     _00311_DS_
0ADE           02658 _00310_DS_:
               02659         .line   542; main.c     MIOS_DOUT_PinSet(29, 0);}
0ADE 0E00      02660         MOVLW   0x00
0AE0 6EED      02661         MOVWF   POSTDEC1
0AE2 0E1D      02662         MOVLW   0x1d
0AE4 EC00 F000 02663         CALL    _MIOS_DOUT_PinSet
0AE8 2AE9      02664         INCF    FSR1L, F
0AEA           02665 _00311_DS_:
0AEA 0000      02666         BANKSEL (_all_param + 10)
               02667         .line   543; main.c     if (all_param.router_flags_Eg_to_lfo3.Eg_to_lfo3 & all_param.eg_select)  {
0AEC 5100      02668         MOVF    (_all_param + 10), W, B
0AEE 0B0F      02669         ANDLW   0x0f
0AF0 6E00      02670         MOVWF   r0x02
               02671 ; removed redundant BANKSEL
0AF2 5100      02672         MOVF    (_all_param + 38), W, B
0AF4 1600      02673         ANDWF   r0x02, F
0AF6 5000      02674         MOVF    r0x02, W
0AF8 E000      02675         BZ      _00313_DS_
               02676         .line   544; main.c     MIOS_DOUT_PinSet(30, 1); }
0AFA 0E01      02677         MOVLW   0x01
0AFC 6EED      02678         MOVWF   POSTDEC1
0AFE 0E1E      02679         MOVLW   0x1e
0B00 EC00 F000 02680         CALL    _MIOS_DOUT_PinSet
0B04 2AE9      02681         INCF    FSR1L, F
0B06 D000      02682         BRA     _00314_DS_
0B08           02683 _00313_DS_:
               02684         .line   546; main.c     MIOS_DOUT_PinSet(30, 0);}
0B08 0E00      02685         MOVLW   0x00
0B0A 6EED      02686         MOVWF   POSTDEC1
0B0C 0E1E      02687         MOVLW   0x1e
0B0E EC00 F000 02688         CALL    _MIOS_DOUT_PinSet
0B12 2AE9      02689         INCF    FSR1L, F
0B14           02690 _00314_DS_:
0B14 0000      02691         BANKSEL (_all_param + 6)
               02692         .line   547; main.c     if (all_param.router_flags_eg_v2s.ALL_flags_eg_v2s & all_param.eg_select)  {
0B16 5100      02693         MOVF    (_all_param + 6), W, B
0B18 0BFF      02694         ANDLW   0xff
0B1A 6E00      02695         MOVWF   r0x02
               02696 ; removed redundant BANKSEL
0B1C 5100      02697         MOVF    (_all_param + 38), W, B
0B1E 1600      02698         ANDWF   r0x02, F
0B20 5000      02699         MOVF    r0x02, W
0B22 E000      02700         BZ      _00316_DS_
gpasm-0.13.6 beta               _output/main__mios-gpasm-tmp.asm7-10-2008  15:16:01          PAGE 51


LOC  OBJECT CODE     LINE SOURCE TEXT
  VALUE
 
               02701         .line   548; main.c     MIOS_DOUT_PinSet(27, 1); }
0B24 0E01      02702         MOVLW   0x01
0B26 6EED      02703         MOVWF   POSTDEC1
0B28 0E1B      02704         MOVLW   0x1b
0B2A EC00 F000 02705         CALL    _MIOS_DOUT_PinSet
0B2E 2AE9      02706         INCF    FSR1L, F
0B30 D000      02707         BRA     _00317_DS_
0B32           02708 _00316_DS_:
               02709         .line   550; main.c     MIOS_DOUT_PinSet(27, 0);}
0B32 0E00      02710         MOVLW   0x00
0B34 6EED      02711         MOVWF   POSTDEC1
0B36 0E1B      02712         MOVLW   0x1b
0B38 EC00 F000 02713         CALL    _MIOS_DOUT_PinSet
0B3C 2AE9      02714         INCF    FSR1L, F
0B3E           02715 _00317_DS_:
0B3E 0000      02716         BANKSEL (_all_param + 7)
               02717         .line   551; main.c     if (all_param.router_flags_eg_audio_trig.ALL_flags_eg_audio_trig & all_param.eg_select)  {
0B40 5100      02718         MOVF    (_all_param + 7), W, B
0B42 0BFF      02719         ANDLW   0xff
0B44 6E00      02720         MOVWF   r0x02
               02721 ; removed redundant BANKSEL
0B46 5100      02722         MOVF    (_all_param + 38), W, B
0B48 1600      02723         ANDWF   r0x02, F
0B4A 5000      02724         MOVF    r0x02, W
0B4C E000      02725         BZ      _00319_DS_
               02726         .line   552; main.c     MIOS_DOUT_PinSet(31, 1); }
0B4E 0E01      02727         MOVLW   0x01
0B50 6EED      02728         MOVWF   POSTDEC1
0B52 0E1F      02729         MOVLW   0x1f
0B54 EC00 F000 02730         CALL    _MIOS_DOUT_PinSet
0B58 2AE9      02731         INCF    FSR1L, F
0B5A D000      02732         BRA     _00320_DS_
0B5C           02733 _00319_DS_:
               02734         .line   554; main.c     MIOS_DOUT_PinSet(31, 0);}
0B5C 0E00      02735         MOVLW   0x00
0B5E 6EED      02736         MOVWF   POSTDEC1
0B60 0E1F      02737         MOVLW   0x1f
0B62 EC00 F000 02738         CALL    _MIOS_DOUT_PinSet
0B66 2AE9      02739         INCF    FSR1L, F
0B68           02740 _00320_DS_:
0B68 0000      02741         BANKSEL (_all_param + 5)
               02742         .line   555; main.c     if ((all_param.router_flags_eg_link.eg1_link_eg2) && (all_param.eg_select <= 2))  {
0B6A A100      02743         BTFSS   (_all_param + 5), 0, B
0B6C D000      02744         BRA     _00326_DS_
0B6E 0E03      02745         MOVLW   0x03
               02746 ; removed redundant BANKSEL
0B70 5D00      02747         SUBWF   (_all_param + 38), W, B
0B72 E200      02748         BC      _00326_DS_
               02749         .line   556; main.c     MIOS_DOUT_PinSet(26, 1); }
0B74 0E01      02750         MOVLW   0x01
0B76 6EED      02751         MOVWF   POSTDEC1
0B78 0E1A      02752         MOVLW   0x1a
0B7A EC00 F000 02753         CALL    _MIOS_DOUT_PinSet
0B7E 2AE9      02754         INCF    FSR1L, F
gpasm-0.13.6 beta               _output/main__mios-gpasm-tmp.asm7-10-2008  15:16:01          PAGE 52


LOC  OBJECT CODE     LINE SOURCE TEXT
  VALUE
 
0B80 D000      02755         BRA     _00327_DS_
0B82           02756 _00326_DS_:
0B82 0000      02757         BANKSEL (_all_param + 5)
               02758         .line   557; main.c     else if ((all_param.router_flags_eg_link.eg3_link_eg4) && (all_param.eg_select >= 4))  {
0B84 A300      02759         BTFSS   (_all_param + 5), 1, B
0B86 D000      02760         BRA     _00322_DS_
0B88 0E04      02761         MOVLW   0x04
               02762 ; removed redundant BANKSEL
0B8A 5D00      02763         SUBWF   (_all_param + 38), W, B
0B8C E300      02764         BNC     _00322_DS_
               02765         .line   558; main.c     MIOS_DOUT_PinSet(26, 1);}
0B8E 0E01      02766         MOVLW   0x01
0B90 6EED      02767         MOVWF   POSTDEC1
0B92 0E1A      02768         MOVLW   0x1a
0B94 EC00 F000 02769         CALL    _MIOS_DOUT_PinSet
0B98 2AE9      02770         INCF    FSR1L, F
0B9A D000      02771         BRA     _00327_DS_
0B9C           02772 _00322_DS_:
               02773         .line   560; main.c     MIOS_DOUT_PinSet(26, 0);}
0B9C 0E00      02774         MOVLW   0x00
0B9E 6EED      02775         MOVWF   POSTDEC1
0BA0 0E1A      02776         MOVLW   0x1a
0BA2 EC00 F000 02777         CALL    _MIOS_DOUT_PinSet
0BA6 2AE9      02778         INCF    FSR1L, F
0BA8           02779 _00327_DS_:
               02780         .line   561; main.c     switch ( all_param.eg_select ) {
0BA8 C000 F000 02781         MOVFF   (_all_param + 38), r0x02
0BAC 5000      02782         MOVF    r0x02, W
0BAE 0A01      02783         XORLW   0x01
0BB0 E000      02784         BZ      _00329_DS_
0BB2 5000      02785         MOVF    r0x02, W
0BB4 0A02      02786         XORLW   0x02
0BB6 E000      02787         BZ      _00330_DS_
0BB8 5000      02788         MOVF    r0x02, W
0BBA 0A04      02789         XORLW   0x04
0BBC E000      02790         BZ      _00331_DS_
0BBE 5000      02791         MOVF    r0x02, W
0BC0 0A08      02792         XORLW   0x08
0BC2 E000      02793         BZ      _00332_DS_
0BC4 D000      02794         BRA     _00376_DS_
0BC6           02795 _00329_DS_:
0BC6 0000      02796         BANKSEL _eg_select_hlp
               02797         .line   563; main.c     eg_select_hlp = 0;
0BC8 6B00      02798         CLRF    _eg_select_hlp, B
               02799         .line   564; main.c     break;
0BCA D000      02800         BRA     _00376_DS_
0BCC           02801 _00330_DS_:
               02802         .line   566; main.c     eg_select_hlp = 1;
0BCC 0E01      02803         MOVLW   0x01
0BCE 0000      02804         BANKSEL _eg_select_hlp
0BD0 6F00      02805         MOVWF   _eg_select_hlp, B
               02806         .line   568; main.c     break;
0BD2 D000      02807         BRA     _00376_DS_
0BD4           02808 _00331_DS_:
gpasm-0.13.6 beta               _output/main__mios-gpasm-tmp.asm7-10-2008  15:16:01          PAGE 53


LOC  OBJECT CODE     LINE SOURCE TEXT
  VALUE
 
               02809         .line   570; main.c     eg_select_hlp = 2;
0BD4 0E02      02810         MOVLW   0x02
0BD6 0000      02811         BANKSEL _eg_select_hlp
0BD8 6F00      02812         MOVWF   _eg_select_hlp, B
               02813         .line   571; main.c     break;
0BDA D000      02814         BRA     _00376_DS_
0BDC           02815 _00332_DS_:
               02816         .line   573; main.c     eg_select_hlp = 3;
0BDC 0E03      02817         MOVLW   0x03
0BDE 0000      02818         BANKSEL _eg_select_hlp
0BE0 6F00      02819         MOVWF   _eg_select_hlp, B
               02820         .line   576; main.c     break;
0BE2 D000      02821         BRA     _00376_DS_
0BE4           02822 _00336_DS_:
               02823         .line   579; main.c     if(!pin_value ){
0BE4 5000      02824         MOVF    r0x01, W
0BE6 A4D8      02825         BTFSS   STATUS, 2
0BE8 D000      02826         BRA     _00376_DS_
0BEA 0000      02827         BANKSEL _preset
               02828         .line   580; main.c     preset = 0x0100;
0BEC 6B00      02829         CLRF    _preset, B
0BEE 0E01      02830         MOVLW   0x01
               02831 ; removed redundant BANKSEL
0BF0 6F00      02832         MOVWF   (_preset + 1), B
0BF2 0000      02833         BANKSEL _app_flags
               02834         .line   581; main.c     if( app_flags.save_on ){
0BF4 A700      02835         BTFSS   _app_flags, 3, B
0BF6 D000      02836         BRA     _00338_DS_
0BF8 0000      02837         BANKSEL (_preset + 1)
               02838         .line   582; main.c     BANKSTICK_SAVE_Evnt(bank, preset);  }
0BFA 5100      02839         MOVF    (_preset + 1), W, B
0BFC 6EED      02840         MOVWF   POSTDEC1
               02841 ; removed redundant BANKSEL
0BFE 5100      02842         MOVF    _preset, W, B
0C00 6EED      02843         MOVWF   POSTDEC1
0C02 0000      02844         BANKSEL (_bank + 1)
0C04 5100      02845         MOVF    (_bank + 1), W, B
0C06 6EED      02846         MOVWF   POSTDEC1
               02847 ; removed redundant BANKSEL
0C08 5100      02848         MOVF    _bank, W, B
0C0A EC00 F000 02849         CALL    _BANKSTICK_SAVE_Evnt
0C0E 0E03      02850         MOVLW   0x03
0C10 26E9      02851         ADDWF   FSR1L, F
0C12 D000      02852         BRA     _00339_DS_
0C14           02853 _00338_DS_:
0C14 0000      02854         BANKSEL (_preset + 1)
               02855         .line   584; main.c     BANKSTICK_LOAD_Evnt(bank, preset);  }
0C16 5100      02856         MOVF    (_preset + 1), W, B
0C18 6EED      02857         MOVWF   POSTDEC1
               02858 ; removed redundant BANKSEL
0C1A 5100      02859         MOVF    _preset, W, B
0C1C 6EED      02860         MOVWF   POSTDEC1
0C1E 0000      02861         BANKSEL (_bank + 1)
0C20 5100      02862         MOVF    (_bank + 1), W, B
gpasm-0.13.6 beta               _output/main__mios-gpasm-tmp.asm7-10-2008  15:16:01          PAGE 54


LOC  OBJECT CODE     LINE SOURCE TEXT
  VALUE
 
0C22 6EED      02863         MOVWF   POSTDEC1
               02864 ; removed redundant BANKSEL
0C24 5100      02865         MOVF    _bank, W, B
0C26 EC00 F000 02866         CALL    _BANKSTICK_LOAD_Evnt
0C2A 0E03      02867         MOVLW   0x03
0C2C 26E9      02868         ADDWF   FSR1L, F
0C2E           02869 _00339_DS_:
               02870         .line   585; main.c     sr_temp = MIOS_DOUT_SRGet(6);
0C2E 0E06      02871         MOVLW   0x06
0C30 EC00 F000 02872         CALL    _MIOS_DOUT_SRGet
0C34 6E00      02873         MOVWF   r0x00
               02874         .line   586; main.c     sr_temp &= 0x0f;
0C36 0E0F      02875         MOVLW   0x0f
0C38 1600      02876         ANDWF   r0x00, F
               02877         .line   587; main.c     sr_temp |= 0x10 ;
0C3A 8800      02878         BSF     r0x00, 4
               02879         .line   588; main.c     MIOS_DOUT_SRSet(6, sr_temp);}
0C3C 5000      02880         MOVF    r0x00, W
0C3E 6EED      02881         MOVWF   POSTDEC1
0C40 0E06      02882         MOVLW   0x06
0C42 EC00 F000 02883         CALL    _MIOS_DOUT_SRSet
0C46 2AE9      02884         INCF    FSR1L, F
               02885         .line   589; main.c     break;
0C48 D000      02886         BRA     _00376_DS_
0C4A           02887 _00342_DS_:
               02888         .line   592; main.c     if(!pin_value ){
0C4A 5000      02889         MOVF    r0x01, W
0C4C A4D8      02890         BTFSS   STATUS, 2
0C4E D000      02891         BRA     _00376_DS_
0C50 0000      02892         BANKSEL _preset
               02893         .line   593; main.c     preset = 0x0200;
0C52 6B00      02894         CLRF    _preset, B
0C54 0E02      02895         MOVLW   0x02
               02896 ; removed redundant BANKSEL
0C56 6F00      02897         MOVWF   (_preset + 1), B
0C58 0000      02898         BANKSEL _app_flags
               02899         .line   594; main.c     if( app_flags.save_on ){
0C5A A700      02900         BTFSS   _app_flags, 3, B
0C5C D000      02901         BRA     _00344_DS_
0C5E 0000      02902         BANKSEL (_preset + 1)
               02903         .line   595; main.c     BANKSTICK_SAVE_Evnt(bank, preset);  }
0C60 5100      02904         MOVF    (_preset + 1), W, B
0C62 6EED      02905         MOVWF   POSTDEC1
               02906 ; removed redundant BANKSEL
0C64 5100      02907         MOVF    _preset, W, B
0C66 6EED      02908         MOVWF   POSTDEC1
0C68 0000      02909         BANKSEL (_bank + 1)
0C6A 5100      02910         MOVF    (_bank + 1), W, B
0C6C 6EED      02911         MOVWF   POSTDEC1
               02912 ; removed redundant BANKSEL
0C6E 5100      02913         MOVF    _bank, W, B
0C70 EC00 F000 02914         CALL    _BANKSTICK_SAVE_Evnt
0C74 0E03      02915         MOVLW   0x03
0C76 26E9      02916         ADDWF   FSR1L, F
gpasm-0.13.6 beta               _output/main__mios-gpasm-tmp.asm7-10-2008  15:16:01          PAGE 55


LOC  OBJECT CODE     LINE SOURCE TEXT
  VALUE
 
0C78 D000      02917         BRA     _00345_DS_
0C7A           02918 _00344_DS_:
0C7A 0000      02919         BANKSEL (_preset + 1)
               02920         .line   597; main.c     BANKSTICK_LOAD_Evnt(bank, preset);  }
0C7C 5100      02921         MOVF    (_preset + 1), W, B
0C7E 6EED      02922         MOVWF   POSTDEC1
               02923 ; removed redundant BANKSEL
0C80 5100      02924         MOVF    _preset, W, B
0C82 6EED      02925         MOVWF   POSTDEC1
0C84 0000      02926         BANKSEL (_bank + 1)
0C86 5100      02927         MOVF    (_bank + 1), W, B
0C88 6EED      02928         MOVWF   POSTDEC1
               02929 ; removed redundant BANKSEL
0C8A 5100      02930         MOVF    _bank, W, B
0C8C EC00 F000 02931         CALL    _BANKSTICK_LOAD_Evnt
0C90 0E03      02932         MOVLW   0x03
0C92 26E9      02933         ADDWF   FSR1L, F
0C94           02934 _00345_DS_:
               02935         .line   598; main.c     sr_temp = MIOS_DOUT_SRGet(6);
0C94 0E06      02936         MOVLW   0x06
0C96 EC00 F000 02937         CALL    _MIOS_DOUT_SRGet
0C9A 6E00      02938         MOVWF   r0x00
               02939         .line   599; main.c     sr_temp &= 0x0f;
0C9C 0E0F      02940         MOVLW   0x0f
0C9E 1600      02941         ANDWF   r0x00, F
               02942         .line   600; main.c     sr_temp |= 0x20;
0CA0 8A00      02943         BSF     r0x00, 5
               02944         .line   601; main.c     MIOS_DOUT_SRSet(6, sr_temp);}
0CA2 5000      02945         MOVF    r0x00, W
0CA4 6EED      02946         MOVWF   POSTDEC1
0CA6 0E06      02947         MOVLW   0x06
0CA8 EC00 F000 02948         CALL    _MIOS_DOUT_SRSet
0CAC 2AE9      02949         INCF    FSR1L, F
               02950         .line   602; main.c     break;
0CAE D000      02951         BRA     _00376_DS_
0CB0           02952 _00348_DS_:
               02953         .line   605; main.c     if(!pin_value ){
0CB0 5000      02954         MOVF    r0x01, W
0CB2 A4D8      02955         BTFSS   STATUS, 2
0CB4 D000      02956         BRA     _00376_DS_
0CB6 0000      02957         BANKSEL _preset
               02958         .line   606; main.c     preset = 0x0300;
0CB8 6B00      02959         CLRF    _preset, B
0CBA 0E03      02960         MOVLW   0x03
               02961 ; removed redundant BANKSEL
0CBC 6F00      02962         MOVWF   (_preset + 1), B
0CBE 0000      02963         BANKSEL _app_flags
               02964         .line   607; main.c     if( app_flags.save_on ){
0CC0 A700      02965         BTFSS   _app_flags, 3, B
0CC2 D000      02966         BRA     _00350_DS_
0CC4 0000      02967         BANKSEL (_preset + 1)
               02968         .line   608; main.c     BANKSTICK_SAVE_Evnt(bank, preset);  }
0CC6 5100      02969         MOVF    (_preset + 1), W, B
0CC8 6EED      02970         MOVWF   POSTDEC1
gpasm-0.13.6 beta               _output/main__mios-gpasm-tmp.asm7-10-2008  15:16:01          PAGE 56


LOC  OBJECT CODE     LINE SOURCE TEXT
  VALUE
 
               02971 ; removed redundant BANKSEL
0CCA 5100      02972         MOVF    _preset, W, B
0CCC 6EED      02973         MOVWF   POSTDEC1
0CCE 0000      02974         BANKSEL (_bank + 1)
0CD0 5100      02975         MOVF    (_bank + 1), W, B
0CD2 6EED      02976         MOVWF   POSTDEC1
               02977 ; removed redundant BANKSEL
0CD4 5100      02978         MOVF    _bank, W, B
0CD6 EC00 F000 02979         CALL    _BANKSTICK_SAVE_Evnt
0CDA 0E03      02980         MOVLW   0x03
0CDC 26E9      02981         ADDWF   FSR1L, F
0CDE D000      02982         BRA     _00351_DS_
0CE0           02983 _00350_DS_:
0CE0 0000      02984         BANKSEL (_preset + 1)
               02985         .line   610; main.c     BANKSTICK_LOAD_Evnt(bank, preset);  }
0CE2 5100      02986         MOVF    (_preset + 1), W, B
0CE4 6EED      02987         MOVWF   POSTDEC1
               02988 ; removed redundant BANKSEL
0CE6 5100      02989         MOVF    _preset, W, B
0CE8 6EED      02990         MOVWF   POSTDEC1
0CEA 0000      02991         BANKSEL (_bank + 1)
0CEC 5100      02992         MOVF    (_bank + 1), W, B
0CEE 6EED      02993         MOVWF   POSTDEC1
               02994 ; removed redundant BANKSEL
0CF0 5100      02995         MOVF    _bank, W, B
0CF2 EC00 F000 02996         CALL    _BANKSTICK_LOAD_Evnt
0CF6 0E03      02997         MOVLW   0x03
0CF8 26E9      02998         ADDWF   FSR1L, F
0CFA           02999 _00351_DS_:
               03000         .line   611; main.c     sr_temp = MIOS_DOUT_SRGet(6);
0CFA 0E06      03001         MOVLW   0x06
0CFC EC00 F000 03002         CALL    _MIOS_DOUT_SRGet
0D00 6E00      03003         MOVWF   r0x00
               03004         .line   612; main.c     sr_temp &= 0x0f;
0D02 0E0F      03005         MOVLW   0x0f
0D04 1600      03006         ANDWF   r0x00, F
               03007         .line   613; main.c     sr_temp |= 0x40;
0D06 8C00      03008         BSF     r0x00, 6
               03009         .line   614; main.c     MIOS_DOUT_SRSet(6, sr_temp);}
0D08 5000      03010         MOVF    r0x00, W
0D0A 6EED      03011         MOVWF   POSTDEC1
0D0C 0E06      03012         MOVLW   0x06
0D0E EC00 F000 03013         CALL    _MIOS_DOUT_SRSet
0D12 2AE9      03014         INCF    FSR1L, F
               03015         .line   615; main.c     break;
0D14 D000      03016         BRA     _00376_DS_
0D16           03017 _00354_DS_:
               03018         .line   618; main.c     if(!pin_value ){
0D16 5000      03019         MOVF    r0x01, W
0D18 A4D8      03020         BTFSS   STATUS, 2
0D1A D000      03021         BRA     _00376_DS_
0D1C 0000      03022         BANKSEL _preset
               03023         .line   619; main.c     preset = 0x0400;
0D1E 6B00      03024         CLRF    _preset, B
gpasm-0.13.6 beta               _output/main__mios-gpasm-tmp.asm7-10-2008  15:16:01          PAGE 57


LOC  OBJECT CODE     LINE SOURCE TEXT
  VALUE
 
0D20 0E04      03025         MOVLW   0x04
               03026 ; removed redundant BANKSEL
0D22 6F00      03027         MOVWF   (_preset + 1), B
0D24 0000      03028         BANKSEL _app_flags
               03029         .line   620; main.c     if( app_flags.save_on ){
0D26 A700      03030         BTFSS   _app_flags, 3, B
0D28 D000      03031         BRA     _00356_DS_
0D2A 0000      03032         BANKSEL (_preset + 1)
               03033         .line   621; main.c     BANKSTICK_SAVE_Evnt(bank, preset);  }
0D2C 5100      03034         MOVF    (_preset + 1), W, B
0D2E 6EED      03035         MOVWF   POSTDEC1
               03036 ; removed redundant BANKSEL
0D30 5100      03037         MOVF    _preset, W, B
0D32 6EED      03038         MOVWF   POSTDEC1
0D34 0000      03039         BANKSEL (_bank + 1)
0D36 5100      03040         MOVF    (_bank + 1), W, B
0D38 6EED      03041         MOVWF   POSTDEC1
               03042 ; removed redundant BANKSEL
0D3A 5100      03043         MOVF    _bank, W, B
0D3C EC00 F000 03044         CALL    _BANKSTICK_SAVE_Evnt
0D40 0E03      03045         MOVLW   0x03
0D42 26E9      03046         ADDWF   FSR1L, F
0D44 D000      03047         BRA     _00357_DS_
0D46           03048 _00356_DS_:
0D46 0000      03049         BANKSEL (_preset + 1)
               03050         .line   623; main.c     BANKSTICK_LOAD_Evnt(bank, preset);  }
0D48 5100      03051         MOVF    (_preset + 1), W, B
0D4A 6EED      03052         MOVWF   POSTDEC1
               03053 ; removed redundant BANKSEL
0D4C 5100      03054         MOVF    _preset, W, B
0D4E 6EED      03055         MOVWF   POSTDEC1
0D50 0000      03056         BANKSEL (_bank + 1)
0D52 5100      03057         MOVF    (_bank + 1), W, B
0D54 6EED      03058         MOVWF   POSTDEC1
               03059 ; removed redundant BANKSEL
0D56 5100      03060         MOVF    _bank, W, B
0D58 EC00 F000 03061         CALL    _BANKSTICK_LOAD_Evnt
0D5C 0E03      03062         MOVLW   0x03
0D5E 26E9      03063         ADDWF   FSR1L, F
0D60           03064 _00357_DS_:
               03065         .line   624; main.c     sr_temp = MIOS_DOUT_SRGet(6);
0D60 0E06      03066         MOVLW   0x06
0D62 EC00 F000 03067         CALL    _MIOS_DOUT_SRGet
0D66 6E00      03068         MOVWF   r0x00
               03069         .line   625; main.c     sr_temp &= 0x0f;
0D68 0E0F      03070         MOVLW   0x0f
0D6A 1600      03071         ANDWF   r0x00, F
               03072         .line   626; main.c     sr_temp |= 0x80;
0D6C 8E00      03073         BSF     r0x00, 7
               03074         .line   627; main.c     MIOS_DOUT_SRSet(6, sr_temp);    }
0D6E 5000      03075         MOVF    r0x00, W
0D70 6EED      03076         MOVWF   POSTDEC1
0D72 0E06      03077         MOVLW   0x06
0D74 EC00 F000 03078         CALL    _MIOS_DOUT_SRSet
gpasm-0.13.6 beta               _output/main__mios-gpasm-tmp.asm7-10-2008  15:16:01          PAGE 58


LOC  OBJECT CODE     LINE SOURCE TEXT
  VALUE
 
0D78 2AE9      03079         INCF    FSR1L, F
               03080         .line   628; main.c     break;
0D7A D000      03081         BRA     _00376_DS_
0D7C           03082 _00360_DS_:
               03083         .line   631; main.c     if(!pin_value )
0D7C 5000      03084         MOVF    r0x01, W
0D7E A4D8      03085         BTFSS   STATUS, 2
0D80 D000      03086         BRA     _00376_DS_
0D82 0000      03087         BANKSEL _bank
               03088         .line   632; main.c     {  bank = 0x1000;
0D84 6B00      03089         CLRF    _bank, B
0D86 0E10      03090         MOVLW   0x10
               03091 ; removed redundant BANKSEL
0D88 6F00      03092         MOVWF   (_bank + 1), B
               03093         .line   633; main.c     sr_temp = MIOS_DOUT_SRGet(7);
0D8A 0E07      03094         MOVLW   0x07
0D8C EC00 F000 03095         CALL    _MIOS_DOUT_SRGet
0D90 6E00      03096         MOVWF   r0x00
               03097         .line   634; main.c     sr_temp &= 0xf0;
0D92 0EF0      03098         MOVLW   0xf0
0D94 1600      03099         ANDWF   r0x00, F
               03100         .line   635; main.c     sr_temp |= 0x01;
0D96 8000      03101         BSF     r0x00, 0
               03102         .line   636; main.c     MIOS_DOUT_SRSet(7, sr_temp);}
0D98 5000      03103         MOVF    r0x00, W
0D9A 6EED      03104         MOVWF   POSTDEC1
0D9C 0E07      03105         MOVLW   0x07
0D9E EC00 F000 03106         CALL    _MIOS_DOUT_SRSet
0DA2 2AE9      03107         INCF    FSR1L, F
               03108         .line   637; main.c     break;
0DA4 D000      03109         BRA     _00376_DS_
0DA6           03110 _00363_DS_:
               03111         .line   640; main.c     if(!pin_value )
0DA6 5000      03112         MOVF    r0x01, W
0DA8 A4D8      03113         BTFSS   STATUS, 2
0DAA D000      03114         BRA     _00376_DS_
0DAC 0000      03115         BANKSEL _bank
               03116         .line   641; main.c     {  bank = 0x2000;
0DAE 6B00      03117         CLRF    _bank, B
0DB0 0E20      03118         MOVLW   0x20
               03119 ; removed redundant BANKSEL
0DB2 6F00      03120         MOVWF   (_bank + 1), B
               03121         .line   642; main.c     sr_temp = MIOS_DOUT_SRGet(7);
0DB4 0E07      03122         MOVLW   0x07
0DB6 EC00 F000 03123         CALL    _MIOS_DOUT_SRGet
0DBA 6E00      03124         MOVWF   r0x00
               03125         .line   643; main.c     sr_temp &= 0xf0;
0DBC 0EF0      03126         MOVLW   0xf0
0DBE 1600      03127         ANDWF   r0x00, F
               03128         .line   644; main.c     sr_temp |= 0x02;
0DC0 8200      03129         BSF     r0x00, 1
               03130         .line   645; main.c     MIOS_DOUT_SRSet(7, sr_temp);}
0DC2 5000      03131         MOVF    r0x00, W
0DC4 6EED      03132         MOVWF   POSTDEC1
gpasm-0.13.6 beta               _output/main__mios-gpasm-tmp.asm7-10-2008  15:16:01          PAGE 59


LOC  OBJECT CODE     LINE SOURCE TEXT
  VALUE
 
0DC6 0E07      03133         MOVLW   0x07
0DC8 EC00 F000 03134         CALL    _MIOS_DOUT_SRSet
0DCC 2AE9      03135         INCF    FSR1L, F
               03136         .line   646; main.c     break;
0DCE D000      03137         BRA     _00376_DS_
0DD0           03138 _00366_DS_:
               03139         .line   649; main.c     if(!pin_value )
0DD0 5000      03140         MOVF    r0x01, W
0DD2 E100      03141         BNZ     _00376_DS_
0DD4 0000      03142         BANKSEL _bank
               03143         .line   650; main.c     {  bank = 0x3000;
0DD6 6B00      03144         CLRF    _bank, B
0DD8 0E30      03145         MOVLW   0x30
               03146 ; removed redundant BANKSEL
0DDA 6F00      03147         MOVWF   (_bank + 1), B
               03148         .line   651; main.c     sr_temp = MIOS_DOUT_SRGet(7);
0DDC 0E07      03149         MOVLW   0x07
0DDE EC00 F000 03150         CALL    _MIOS_DOUT_SRGet
0DE2 6E00      03151         MOVWF   r0x00
               03152         .line   652; main.c     sr_temp &= 0xf0;
0DE4 0EF0      03153         MOVLW   0xf0
0DE6 1600      03154         ANDWF   r0x00, F
               03155         .line   653; main.c     sr_temp |= 0x04;
0DE8 8400      03156         BSF     r0x00, 2
               03157         .line   654; main.c     MIOS_DOUT_SRSet(7, sr_temp);}
0DEA 5000      03158         MOVF    r0x00, W
0DEC 6EED      03159         MOVWF   POSTDEC1
0DEE 0E07      03160         MOVLW   0x07
0DF0 EC00 F000 03161         CALL    _MIOS_DOUT_SRSet
0DF4 2AE9      03162         INCF    FSR1L, F
               03163         .line   655; main.c     break;
0DF6 D000      03164         BRA     _00376_DS_
0DF8           03165 _00369_DS_:
               03166         .line   658; main.c     if(!pin_value )
0DF8 5000      03167         MOVF    r0x01, W
0DFA E100      03168         BNZ     _00376_DS_
0DFC 0000      03169         BANKSEL _bank
               03170         .line   659; main.c     {  bank = 0x4000;
0DFE 6B00      03171         CLRF    _bank, B
0E00 0E40      03172         MOVLW   0x40
               03173 ; removed redundant BANKSEL
0E02 6F00      03174         MOVWF   (_bank + 1), B
               03175         .line   660; main.c     sr_temp = MIOS_DOUT_SRGet(4);
0E04 0E04      03176         MOVLW   0x04
0E06 EC00 F000 03177         CALL    _MIOS_DOUT_SRGet
0E0A 6E00      03178         MOVWF   r0x00
               03179         .line   661; main.c     sr_temp &= 0xf0;
0E0C 0EF0      03180         MOVLW   0xf0
0E0E 1600      03181         ANDWF   r0x00, F
               03182         .line   662; main.c     sr_temp |= 0x08;
0E10 8600      03183         BSF     r0x00, 3
               03184         .line   663; main.c     MIOS_DOUT_SRSet(4, sr_temp);}
0E12 5000      03185         MOVF    r0x00, W
0E14 6EED      03186         MOVWF   POSTDEC1
gpasm-0.13.6 beta               _output/main__mios-gpasm-tmp.asm7-10-2008  15:16:01          PAGE 60


LOC  OBJECT CODE     LINE SOURCE TEXT
  VALUE
 
0E16 0E04      03187         MOVLW   0x04
0E18 EC00 F000 03188         CALL    _MIOS_DOUT_SRSet
0E1C 2AE9      03189         INCF    FSR1L, F
               03190         .line   664; main.c     break;
0E1E D000      03191         BRA     _00376_DS_
0E20           03192 _00372_DS_:
               03193         .line   667; main.c     if( !pin_value ) {
0E20 5000      03194         MOVF    r0x01, W
0E22 E100      03195         BNZ     _00376_DS_
               03196         .line   668; main.c     CursorBpm ^= 1;
0E24 0E01      03197         MOVLW   0x01
0E26 0000      03198         BANKSEL _CursorBpm
0E28 1B00      03199         XORWF   _CursorBpm, F, B
0E2A           03200 _00376_DS_:
               03201         .line   671; main.c     }
0E2A CFEC F000 03202         MOVFF   PREINC1, r0x02
0E2E CFEC F000 03203         MOVFF   PREINC1, r0x01
0E32 CFEC F000 03204         MOVFF   PREINC1, r0x00
0E36 CFEC FFD9 03205         MOVFF   PREINC1, FSR2L
0E3A 0012      03206         RETURN  
               03207 
               03208 ; ; Starting pCode block
               03209 S_main__SR_Service_Finish       code
0000           03210 _SR_Service_Finish:
               03211         .line   272; main.c     }
0000 0012      03212         RETURN  
               03213 
               03214 ; ; Starting pCode block
               03215 S_main__SR_Service_Prepare      code
0000           03216 _SR_Service_Prepare:
               03217         .line   266; main.c     }
0000 0012      03218         RETURN  
               03219 
               03220 ; ; Starting pCode block
               03221 S_main__MPROC_NotifyReceivedByte        code
0000           03222 _MPROC_NotifyReceivedByte:
               03223         .line   258; main.c     void MPROC_NotifyReceivedByte(unsigned char byte) __wparam
0000 CFD9 FFED 03224         MOVFF   FSR2L, POSTDEC1
0004 CFE9 FFD9 03225         MOVFF   FSR1L, FSR2L
               03226         .line   260; main.c     }
0008 CFEC FFD9 03227         MOVFF   PREINC1, FSR2L
000C 0012      03228         RETURN  
               03229 
               03230 ; ; Starting pCode block
               03231 S_main__MPROC_NotifyTimeout     code
0000           03232 _MPROC_NotifyTimeout:
               03233         .line   254; main.c     }
0000 0012      03234         RETURN  
               03235 
               03236 ; ; Starting pCode block
               03237 S_main__MPROC_NotifyFoundEvent  code
0000           03238 _MPROC_NotifyFoundEvent:
               03239         .line   245; main.c     void MPROC_NotifyFoundEvent(unsigned entry, unsigned char evnt0, unsigned char evnt1, unsigned char evnt2, unsigned char value) __wparam
0000 CFD9 FFED 03240         MOVFF   FSR2L, POSTDEC1
gpasm-0.13.6 beta               _output/main__mios-gpasm-tmp.asm7-10-2008  15:16:01          PAGE 61


LOC  OBJECT CODE     LINE SOURCE TEXT
  VALUE
 
0004 CFE9 FFD9 03241         MOVFF   FSR1L, FSR2L
               03242         .line   247; main.c     }
0008 CFEC FFD9 03243         MOVFF   PREINC1, FSR2L
000C 0012      03244         RETURN  
               03245 
               03246 ; ; Starting pCode block
               03247 S_main__MPROC_NotifyReceivedEvnt        code
0000           03248 _MPROC_NotifyReceivedEvnt:
               03249         .line   236; main.c     void MPROC_NotifyReceivedEvnt(unsigned char evnt0, unsigned char evnt1, unsigned char evnt2) __wparam
0000 CFD9 FFED 03250         MOVFF   FSR2L, POSTDEC1
0004 CFE9 FFD9 03251         MOVFF   FSR1L, FSR2L
0008 C000 FFED 03252         MOVFF   r0x00, POSTDEC1
000C C000 FFED 03253         MOVFF   r0x01, POSTDEC1
0010 C000 FFED 03254         MOVFF   r0x02, POSTDEC1
0014 6E00      03255         MOVWF   r0x00
0016 0E02      03256         MOVLW   0x02
0018 CFDB F000 03257         MOVFF   PLUSW2, r0x01
001C 0E03      03258         MOVLW   0x03
001E CFDB F000 03259         MOVFF   PLUSW2, r0x02
               03260         .line   239; main.c     MIDI_Evnt(evnt0, evnt1, evnt2);
0022 5000      03261         MOVF    r0x02, W
0024 6EED      03262         MOVWF   POSTDEC1
0026 5000      03263         MOVF    r0x01, W
0028 6EED      03264         MOVWF   POSTDEC1
002A 5000      03265         MOVF    r0x00, W
002C 6EED      03266         MOVWF   POSTDEC1
002E EC00 F000 03267         CALL    _MIDI_Evnt
0032 0E03      03268         MOVLW   0x03
0034 26E9      03269         ADDWF   FSR1L, F
0036 CFEC F000 03270         MOVFF   PREINC1, r0x02
003A CFEC F000 03271         MOVFF   PREINC1, r0x01
003E CFEC F000 03272         MOVFF   PREINC1, r0x00
0042 CFEC FFD9 03273         MOVFF   PREINC1, FSR2L
0046 0012      03274         RETURN  
               03275 
               03276 ; ; Starting pCode block
               03277 S_main__DISPLAY_lfobpm  code
0000           03278 _DISPLAY_lfobpm:
               03279         .line   206; main.c     void DISPLAY_lfobpm(volatile unsigned char lfo_bpm_temp) __wparam
0000 CFD9 FFED 03280         MOVFF   FSR2L, POSTDEC1
0004 CFE9 FFD9 03281         MOVFF   FSR1L, FSR2L
0008 C000 FFED 03282         MOVFF   r0x00, POSTDEC1
000C C000 FFED 03283         MOVFF   r0x01, POSTDEC1
0010 C000 FFED 03284         MOVFF   r0x02, POSTDEC1
0014 0000      03285         BANKSEL _DISPLAY_lfobpm_lfo_bpm_temp_1_1
0016 6F00      03286         MOVWF   _DISPLAY_lfobpm_lfo_bpm_temp_1_1, B
               03287         .line   208; main.c     switch (lfo_bpm_temp) {  
0018 C000 F000 03288         MOVFF   _DISPLAY_lfobpm_lfo_bpm_temp_1_1, r0x00
001C 0E0C      03289         MOVLW   0x0c
001E 5C00      03290         SUBWF   r0x00, W
0020 B0D8      03291         BTFSC   STATUS, 0
0022 D000      03292         BRA     _00160_DS_
0024 C000 FFED 03293         MOVFF   r0x03, POSTDEC1
0028 C000 FFED 03294         MOVFF   r0x04, POSTDEC1
gpasm-0.13.6 beta               _output/main__mios-gpasm-tmp.asm7-10-2008  15:16:01          PAGE 62


LOC  OBJECT CODE     LINE SOURCE TEXT
  VALUE
 
002C 6A00      03295         CLRF    r0x04
002E 3400      03296         RLCF    r0x00, W
0030 3600      03297         RLCF    r0x04, F
0032 34E8      03298         RLCF    WREG, W
0034 3600      03299         RLCF    r0x04, F
0036 0BFC      03300         ANDLW   0xfc
0038 6E00      03301         MOVWF   r0x03
003A 0E00      03302         MOVLW   UPPER(_00164_DS_)
003C 6EFB      03303         MOVWF   PCLATU
003E 0E00      03304         MOVLW   HIGH(_00164_DS_)
0040 6EFA      03305         MOVWF   PCLATH
0042 0E00      03306         MOVLW   LOW(_00164_DS_)
0044 2600      03307         ADDWF   r0x03, F
0046 5000      03308         MOVF    r0x04, W
0048 22FA      03309         ADDWFC  PCLATH, F
004A B0D8      03310         BTFSC   STATUS, 0
004C 2AFB      03311         INCF    PCLATU, F
004E 5000      03312         MOVF    r0x03, W
0050 CFEC F000 03313         MOVFF   PREINC1, r0x04
0054 CFEC F000 03314         MOVFF   PREINC1, r0x03
0058 6EF9      03315         MOVWF   PCL
005A           03316 _00164_DS_:
005A EF00 F000 03317         GOTO    _00148_DS_
005E EF00 F000 03318         GOTO    _00149_DS_
0062 EF00 F000 03319         GOTO    _00150_DS_
0066 EF00 F000 03320         GOTO    _00151_DS_
006A EF00 F000 03321         GOTO    _00160_DS_
006E EF00 F000 03322         GOTO    _00152_DS_
0072 EF00 F000 03323         GOTO    _00153_DS_
0076 EF00 F000 03324         GOTO    _00154_DS_
007A EF00 F000 03325         GOTO    _00155_DS_
007E EF00 F000 03326         GOTO    _00156_DS_
0082 EF00 F000 03327         GOTO    _00157_DS_
0086 EF00 F000 03328         GOTO    _00158_DS_
008A           03329 _00148_DS_:
               03330         .line   210; main.c     MIOS_LCD_PrintCString("64/1"); 
008A 0E00      03331         MOVLW   UPPER(__str_2)
008C 6E00      03332         MOVWF   r0x02
008E 0E00      03333         MOVLW   HIGH(__str_2)
0090 6E00      03334         MOVWF   r0x01
0092 0E00      03335         MOVLW   LOW(__str_2)
0094 6E00      03336         MOVWF   r0x00
0096 5000      03337         MOVF    r0x02, W
0098 6EED      03338         MOVWF   POSTDEC1
009A 5000      03339         MOVF    r0x01, W
009C 6EED      03340         MOVWF   POSTDEC1
009E 5000      03341         MOVF    r0x00, W
00A0 EC00 F000 03342         CALL    _MIOS_LCD_PrintCString
00A4 0E02      03343         MOVLW   0x02
00A6 26E9      03344         ADDWF   FSR1L, F
00A8           03345 _00149_DS_:
               03346         .line   212; main.c     MIOS_LCD_PrintCString("32/1"); 
00A8 0E00      03347         MOVLW   UPPER(__str_3)
00AA 6E00      03348         MOVWF   r0x02
gpasm-0.13.6 beta               _output/main__mios-gpasm-tmp.asm7-10-2008  15:16:01          PAGE 63


LOC  OBJECT CODE     LINE SOURCE TEXT
  VALUE
 
00AC 0E00      03349         MOVLW   HIGH(__str_3)
00AE 6E00      03350         MOVWF   r0x01
00B0 0E00      03351         MOVLW   LOW(__str_3)
00B2 6E00      03352         MOVWF   r0x00
00B4 5000      03353         MOVF    r0x02, W
00B6 6EED      03354         MOVWF   POSTDEC1
00B8 5000      03355         MOVF    r0x01, W
00BA 6EED      03356         MOVWF   POSTDEC1
00BC 5000      03357         MOVF    r0x00, W
00BE EC00 F000 03358         CALL    _MIOS_LCD_PrintCString
00C2 0E02      03359         MOVLW   0x02
00C4 26E9      03360         ADDWF   FSR1L, F
00C6           03361 _00150_DS_:
               03362         .line   214; main.c     MIOS_LCD_PrintCString("16/1"); 
00C6 0E00      03363         MOVLW   UPPER(__str_4)
00C8 6E00      03364         MOVWF   r0x02
00CA 0E00      03365         MOVLW   HIGH(__str_4)
00CC 6E00      03366         MOVWF   r0x01
00CE 0E00      03367         MOVLW   LOW(__str_4)
00D0 6E00      03368         MOVWF   r0x00
00D2 5000      03369         MOVF    r0x02, W
00D4 6EED      03370         MOVWF   POSTDEC1
00D6 5000      03371         MOVF    r0x01, W
00D8 6EED      03372         MOVWF   POSTDEC1
00DA 5000      03373         MOVF    r0x00, W
00DC EC00 F000 03374         CALL    _MIOS_LCD_PrintCString
00E0 0E02      03375         MOVLW   0x02
00E2 26E9      03376         ADDWF   FSR1L, F
00E4           03377 _00151_DS_:
               03378         .line   216; main.c     MIOS_LCD_PrintCString(" 8/1"); 
00E4 0E00      03379         MOVLW   UPPER(__str_5)
00E6 6E00      03380         MOVWF   r0x02
00E8 0E00      03381         MOVLW   HIGH(__str_5)
00EA 6E00      03382         MOVWF   r0x01
00EC 0E00      03383         MOVLW   LOW(__str_5)
00EE 6E00      03384         MOVWF   r0x00
00F0 5000      03385         MOVF    r0x02, W
00F2 6EED      03386         MOVWF   POSTDEC1
00F4 5000      03387         MOVF    r0x01, W
00F6 6EED      03388         MOVWF   POSTDEC1
00F8 5000      03389         MOVF    r0x00, W
00FA EC00 F000 03390         CALL    _MIOS_LCD_PrintCString
00FE 0E02      03391         MOVLW   0x02
0100 26E9      03392         ADDWF   FSR1L, F
0102           03393 _00152_DS_:
               03394         .line   218; main.c     MIOS_LCD_PrintCString(" 4/1");
0102 0E00      03395         MOVLW   UPPER(__str_6)
0104 6E00      03396         MOVWF   r0x02
0106 0E00      03397         MOVLW   HIGH(__str_6)
0108 6E00      03398         MOVWF   r0x01
010A 0E00      03399         MOVLW   LOW(__str_6)
010C 6E00      03400         MOVWF   r0x00
010E 5000      03401         MOVF    r0x02, W
0110 6EED      03402         MOVWF   POSTDEC1
gpasm-0.13.6 beta               _output/main__mios-gpasm-tmp.asm7-10-2008  15:16:01          PAGE 64


LOC  OBJECT CODE     LINE SOURCE TEXT
  VALUE
 
0112 5000      03403         MOVF    r0x01, W
0114 6EED      03404         MOVWF   POSTDEC1
0116 5000      03405         MOVF    r0x00, W
0118 EC00 F000 03406         CALL    _MIOS_LCD_PrintCString
011C 0E02      03407         MOVLW   0x02
011E 26E9      03408         ADDWF   FSR1L, F
0120           03409 _00153_DS_:
               03410         .line   220; main.c     MIOS_LCD_PrintCString(" 2/1"); 
0120 0E00      03411         MOVLW   UPPER(__str_7)
0122 6E00      03412         MOVWF   r0x02
0124 0E00      03413         MOVLW   HIGH(__str_7)
0126 6E00      03414         MOVWF   r0x01
0128 0E00      03415         MOVLW   LOW(__str_7)
012A 6E00      03416         MOVWF   r0x00
012C 5000      03417         MOVF    r0x02, W
012E 6EED      03418         MOVWF   POSTDEC1
0130 5000      03419         MOVF    r0x01, W
0132 6EED      03420         MOVWF   POSTDEC1
0134 5000      03421         MOVF    r0x00, W
0136 EC00 F000 03422         CALL    _MIOS_LCD_PrintCString
013A 0E02      03423         MOVLW   0x02
013C 26E9      03424         ADDWF   FSR1L, F
013E           03425 _00154_DS_:
               03426         .line   222; main.c     MIOS_LCD_PrintCString(" 1/1"); 
013E 0E00      03427         MOVLW   UPPER(__str_8)
0140 6E00      03428         MOVWF   r0x02
0142 0E00      03429         MOVLW   HIGH(__str_8)
0144 6E00      03430         MOVWF   r0x01
0146 0E00      03431         MOVLW   LOW(__str_8)
0148 6E00      03432         MOVWF   r0x00
014A 5000      03433         MOVF    r0x02, W
014C 6EED      03434         MOVWF   POSTDEC1
014E 5000      03435         MOVF    r0x01, W
0150 6EED      03436         MOVWF   POSTDEC1
0152 5000      03437         MOVF    r0x00, W
0154 EC00 F000 03438         CALL    _MIOS_LCD_PrintCString
0158 0E02      03439         MOVLW   0x02
015A 26E9      03440         ADDWF   FSR1L, F
015C           03441 _00155_DS_:
               03442         .line   224; main.c     MIOS_LCD_PrintCString("1/2"); 
015C 0E00      03443         MOVLW   UPPER(__str_9)
015E 6E00      03444         MOVWF   r0x02
0160 0E00      03445         MOVLW   HIGH(__str_9)
0162 6E00      03446         MOVWF   r0x01
0164 0E00      03447         MOVLW   LOW(__str_9)
0166 6E00      03448         MOVWF   r0x00
0168 5000      03449         MOVF    r0x02, W
016A 6EED      03450         MOVWF   POSTDEC1
016C 5000      03451         MOVF    r0x01, W
016E 6EED      03452         MOVWF   POSTDEC1
0170 5000      03453         MOVF    r0x00, W
0172 EC00 F000 03454         CALL    _MIOS_LCD_PrintCString
0176 0E02      03455         MOVLW   0x02
0178 26E9      03456         ADDWF   FSR1L, F
gpasm-0.13.6 beta               _output/main__mios-gpasm-tmp.asm7-10-2008  15:16:01          PAGE 65


LOC  OBJECT CODE     LINE SOURCE TEXT
  VALUE
 
017A           03457 _00156_DS_:
               03458         .line   226; main.c     MIOS_LCD_PrintCString("1/4"); 
017A 0E00      03459         MOVLW   UPPER(__str_10)
017C 6E00      03460         MOVWF   r0x02
017E 0E00      03461         MOVLW   HIGH(__str_10)
0180 6E00      03462         MOVWF   r0x01
0182 0E00      03463         MOVLW   LOW(__str_10)
0184 6E00      03464         MOVWF   r0x00
0186 5000      03465         MOVF    r0x02, W
0188 6EED      03466         MOVWF   POSTDEC1
018A 5000      03467         MOVF    r0x01, W
018C 6EED      03468         MOVWF   POSTDEC1
018E 5000      03469         MOVF    r0x00, W
0190 EC00 F000 03470         CALL    _MIOS_LCD_PrintCString
0194 0E02      03471         MOVLW   0x02
0196 26E9      03472         ADDWF   FSR1L, F
0198           03473 _00157_DS_:
               03474         .line   228; main.c     MIOS_LCD_PrintCString("1/8"); 
0198 0E00      03475         MOVLW   UPPER(__str_11)
019A 6E00      03476         MOVWF   r0x02
019C 0E00      03477         MOVLW   HIGH(__str_11)
019E 6E00      03478         MOVWF   r0x01
01A0 0E00      03479         MOVLW   LOW(__str_11)
01A2 6E00      03480         MOVWF   r0x00
01A4 5000      03481         MOVF    r0x02, W
01A6 6EED      03482         MOVWF   POSTDEC1
01A8 5000      03483         MOVF    r0x01, W
01AA 6EED      03484         MOVWF   POSTDEC1
01AC 5000      03485         MOVF    r0x00, W
01AE EC00 F000 03486         CALL    _MIOS_LCD_PrintCString
01B2 0E02      03487         MOVLW   0x02
01B4 26E9      03488         ADDWF   FSR1L, F
01B6           03489 _00158_DS_:
               03490         .line   230; main.c     MIOS_LCD_PrintCString("1/16"); 
01B6 0E00      03491         MOVLW   UPPER(__str_12)
01B8 6E00      03492         MOVWF   r0x02
01BA 0E00      03493         MOVLW   HIGH(__str_12)
01BC 6E00      03494         MOVWF   r0x01
01BE 0E00      03495         MOVLW   LOW(__str_12)
01C0 6E00      03496         MOVWF   r0x00
01C2 5000      03497         MOVF    r0x02, W
01C4 6EED      03498         MOVWF   POSTDEC1
01C6 5000      03499         MOVF    r0x01, W
01C8 6EED      03500         MOVWF   POSTDEC1
01CA 5000      03501         MOVF    r0x00, W
01CC EC00 F000 03502         CALL    _MIOS_LCD_PrintCString
01D0 0E02      03503         MOVLW   0x02
01D2 26E9      03504         ADDWF   FSR1L, F
01D4           03505 _00160_DS_:
               03506         .line   231; main.c     }
01D4 CFEC F000 03507         MOVFF   PREINC1, r0x02
01D8 CFEC F000 03508         MOVFF   PREINC1, r0x01
01DC CFEC F000 03509         MOVFF   PREINC1, r0x00
01E0 CFEC FFD9 03510         MOVFF   PREINC1, FSR2L
gpasm-0.13.6 beta               _output/main__mios-gpasm-tmp.asm7-10-2008  15:16:01          PAGE 66


LOC  OBJECT CODE     LINE SOURCE TEXT
  VALUE
 
01E4 0012      03511         RETURN  
               03512 
               03513 ; ; Starting pCode block
               03514 S_main__DISPLAY_Tick    code
0000           03515 _DISPLAY_Tick:
               03516         .line   152; main.c     void DISPLAY_Tick(void) __wparam
0000 C000 FFED 03517         MOVFF   r0x00, POSTDEC1
0004 C000 FFED 03518         MOVFF   r0x01, POSTDEC1
0008 C000 FFED 03519         MOVFF   r0x02, POSTDEC1
000C 0000      03520         BANKSEL _app_flags
               03521         .line   156; main.c     if( !app_flags.DISPLAY_UPDATE_REQ )
000E B500      03522         BTFSC   _app_flags, 2, B
0010 D000      03523         BRA     _00132_DS_
               03524         .line   157; main.c     return;
0012 D000      03525         BRA     _00136_DS_
0014           03526 _00132_DS_:
0014 0000      03527         BANKSEL _app_flags
               03528         .line   160; main.c     app_flags.DISPLAY_UPDATE_REQ = 0;
0016 9500      03529         BCF     _app_flags, 2, B
               03530         .line   162; main.c     switch( app_flags.save_on ) {
0018 6A00      03531         CLRF    r0x00
               03532 ; removed redundant BANKSEL
001A B700      03533         BTFSC   _app_flags, 3, B
001C 2A00      03534         INCF    r0x00, F
001E C000 F000 03535         MOVFF   r0x00, r0x01
0022 5000      03536         MOVF    r0x01, W
0024 E000      03537         BZ      _00133_DS_
0026 5000      03538         MOVF    r0x00, W
0028 0A01      03539         XORLW   0x01
002A E100      03540         BNZ     _00144_DS_
002C D000      03541         BRA     _00134_DS_
002E           03542 _00144_DS_:
002E D000      03543         BRA     _00136_DS_
0030           03544 _00133_DS_:
               03545         .line   165; main.c     MIOS_LCD_CursorSet(0x00); // first line
0030 0E00      03546         MOVLW   0x00
0032 EC00 F000 03547         CALL    _MIOS_LCD_CursorSet
               03548         .line   166; main.c     MIOS_LCD_PrintCString("BPM  LFO1 LFO2 LFO3 chn: EG1 EG2 EG3 EG4");
0036 0E00      03549         MOVLW   UPPER(__str_0)
0038 6E00      03550         MOVWF   r0x02
003A 0E00      03551         MOVLW   HIGH(__str_0)
003C 6E00      03552         MOVWF   r0x01
003E 0E00      03553         MOVLW   LOW(__str_0)
0040 6E00      03554         MOVWF   r0x00
0042 5000      03555         MOVF    r0x02, W
0044 6EED      03556         MOVWF   POSTDEC1
0046 5000      03557         MOVF    r0x01, W
0048 6EED      03558         MOVWF   POSTDEC1
004A 5000      03559         MOVF    r0x00, W
004C EC00 F000 03560         CALL    _MIOS_LCD_PrintCString
0050 0E02      03561         MOVLW   0x02
0052 26E9      03562         ADDWF   FSR1L, F
               03563         .line   167; main.c     lcd_temp = all_param.bpm;
0054 C000 F000 03564         MOVFF   (_all_param + 39), _lcd_temp
gpasm-0.13.6 beta               _output/main__mios-gpasm-tmp.asm7-10-2008  15:16:01          PAGE 67


LOC  OBJECT CODE     LINE SOURCE TEXT
  VALUE
 
               03565         .line   168; main.c     MIOS_LCD_CursorSet(0x40);
0058 0E40      03566         MOVLW   0x40
005A EC00 F000 03567         CALL    _MIOS_LCD_CursorSet
005E 0000      03568         BANKSEL _lcd_temp
               03569         .line   169; main.c     MIOS_LCD_PrintBCD3( lcd_temp );
0060 5100      03570         MOVF    _lcd_temp, W, B
0062 EC00 F000 03571         CALL    _MIOS_LCD_PrintBCD3
               03572         .line   171; main.c     lfo_bpm_temp = all_param.lfo0_bpm;
0066 C000 F000 03573         MOVFF   (_all_param + 35), _lfo_bpm_temp
               03574         .line   172; main.c     MIOS_LCD_CursorSet(0x45); 
006A 0E45      03575         MOVLW   0x45
006C EC00 F000 03576         CALL    _MIOS_LCD_CursorSet
0070 0000      03577         BANKSEL _lfo_bpm_temp
               03578         .line   173; main.c     DISPLAY_lfobpm (lfo_bpm_temp);
0072 5100      03579         MOVF    _lfo_bpm_temp, W, B
0074 EC00 F000 03580         CALL    _DISPLAY_lfobpm
               03581         .line   175; main.c     lfo_bpm_temp = all_param.lfo1_bpm;
0078 C000 F000 03582         MOVFF   (_all_param + 36), _lfo_bpm_temp
               03583         .line   176; main.c     MIOS_LCD_CursorSet(0x4a); 
007C 0E4A      03584         MOVLW   0x4a
007E EC00 F000 03585         CALL    _MIOS_LCD_CursorSet
0082 0000      03586         BANKSEL _lfo_bpm_temp
               03587         .line   177; main.c     DISPLAY_lfobpm (lfo_bpm_temp);
0084 5100      03588         MOVF    _lfo_bpm_temp, W, B
0086 EC00 F000 03589         CALL    _DISPLAY_lfobpm
               03590         .line   179; main.c     lfo_bpm_temp = all_param.lfo2_bpm;
008A C000 F000 03591         MOVFF   (_all_param + 37), _lfo_bpm_temp
               03592         .line   180; main.c     MIOS_LCD_CursorSet(0x4f); 
008E 0E4F      03593         MOVLW   0x4f
0090 EC00 F000 03594         CALL    _MIOS_LCD_CursorSet
0094 0000      03595         BANKSEL _lfo_bpm_temp
               03596         .line   181; main.c     DISPLAY_lfobpm (lfo_bpm_temp);
0096 5100      03597         MOVF    _lfo_bpm_temp, W, B
0098 EC00 F000 03598         CALL    _DISPLAY_lfobpm
               03599         .line   183; main.c     lcd_temp = all_param.eg_channel[0];
009C C000 F000 03600         MOVFF   (_all_param + 12), _lcd_temp
               03601         .line   184; main.c     MIOS_LCD_CursorSet(0x59);
00A0 0E59      03602         MOVLW   0x59
00A2 EC00 F000 03603         CALL    _MIOS_LCD_CursorSet
00A6 0000      03604         BANKSEL _lcd_temp
               03605         .line   185; main.c     MIOS_LCD_PrintBCD3(lcd_temp);
00A8 5100      03606         MOVF    _lcd_temp, W, B
00AA EC00 F000 03607         CALL    _MIOS_LCD_PrintBCD3
               03608         .line   186; main.c     lcd_temp = all_param.eg_channel[1];
00AE C000 F000 03609         MOVFF   (_all_param + 13), _lcd_temp
               03610         .line   187; main.c     MIOS_LCD_CursorSet(0x5d);
00B2 0E5D      03611         MOVLW   0x5d
00B4 EC00 F000 03612         CALL    _MIOS_LCD_CursorSet
00B8 0000      03613         BANKSEL _lcd_temp
               03614         .line   188; main.c     MIOS_LCD_PrintBCD3(lcd_temp);
00BA 5100      03615         MOVF    _lcd_temp, W, B
00BC EC00 F000 03616         CALL    _MIOS_LCD_PrintBCD3
               03617         .line   189; main.c     lcd_temp = all_param.eg_channel[2];
00C0 C000 F000 03618         MOVFF   (_all_param + 14), _lcd_temp
gpasm-0.13.6 beta               _output/main__mios-gpasm-tmp.asm7-10-2008  15:16:01          PAGE 68


LOC  OBJECT CODE     LINE SOURCE TEXT
  VALUE
 
               03619         .line   190; main.c     MIOS_LCD_CursorSet(0x61);
00C4 0E61      03620         MOVLW   0x61
00C6 EC00 F000 03621         CALL    _MIOS_LCD_CursorSet
00CA 0000      03622         BANKSEL _lcd_temp
               03623         .line   191; main.c     MIOS_LCD_PrintBCD3(lcd_temp);
00CC 5100      03624         MOVF    _lcd_temp, W, B
00CE EC00 F000 03625         CALL    _MIOS_LCD_PrintBCD3
               03626         .line   192; main.c     lcd_temp = all_param.eg_channel[3];
00D2 C000 F000 03627         MOVFF   (_all_param + 15), _lcd_temp
               03628         .line   193; main.c     MIOS_LCD_CursorSet(0x65);
00D6 0E65      03629         MOVLW   0x65
00D8 EC00 F000 03630         CALL    _MIOS_LCD_CursorSet
00DC 0000      03631         BANKSEL _lcd_temp
               03632         .line   194; main.c     MIOS_LCD_PrintBCD3(lcd_temp);
00DE 5100      03633         MOVF    _lcd_temp, W, B
00E0 EC00 F000 03634         CALL    _MIOS_LCD_PrintBCD3
00E4           03635 _00134_DS_:
               03636         .line   197; main.c     MIOS_LCD_CursorSet(0x00); // first line
00E4 0E00      03637         MOVLW   0x00
00E6 EC00 F000 03638         CALL    _MIOS_LCD_CursorSet
               03639         .line   198; main.c     MIOS_LCD_PrintCString("SAVE: choose bank and preset...");
00EA 0E00      03640         MOVLW   UPPER(__str_1)
00EC 6E00      03641         MOVWF   r0x02
00EE 0E00      03642         MOVLW   HIGH(__str_1)
00F0 6E00      03643         MOVWF   r0x01
00F2 0E00      03644         MOVLW   LOW(__str_1)
00F4 6E00      03645         MOVWF   r0x00
00F6 5000      03646         MOVF    r0x02, W
00F8 6EED      03647         MOVWF   POSTDEC1
00FA 5000      03648         MOVF    r0x01, W
00FC 6EED      03649         MOVWF   POSTDEC1
00FE 5000      03650         MOVF    r0x00, W
0100 EC00 F000 03651         CALL    _MIOS_LCD_PrintCString
0104 0E02      03652         MOVLW   0x02
0106 26E9      03653         ADDWF   FSR1L, F
0108           03654 _00136_DS_:
               03655         .line   199; main.c     break;}
0108 CFEC F000 03656         MOVFF   PREINC1, r0x02
010C CFEC F000 03657         MOVFF   PREINC1, r0x01
0110 CFEC F000 03658         MOVFF   PREINC1, r0x00
0114 0012      03659         RETURN  
               03660 
               03661 ; ; Starting pCode block
               03662 S_main__DISPLAY_Init    code
0000           03663 _DISPLAY_Init:
               03664         .line   137; main.c     void DISPLAY_Init(void) __wparam
0000 C000 FFED 03665         MOVFF   r0x00, POSTDEC1
0004 C000 FFED 03666         MOVFF   r0x01, POSTDEC1
0008 C000 FFED 03667         MOVFF   r0x02, POSTDEC1
               03668         .line   140; main.c     MIOS_LCD_Clear();
000C EC00 F000 03669         CALL    _MIOS_LCD_Clear
               03670         .line   142; main.c     MIOS_LCD_CursorSet(0x00); // first line
0010 0E00      03671         MOVLW   0x00
0012 EC00 F000 03672         CALL    _MIOS_LCD_CursorSet
gpasm-0.13.6 beta               _output/main__mios-gpasm-tmp.asm7-10-2008  15:16:01          PAGE 69


LOC  OBJECT CODE     LINE SOURCE TEXT
  VALUE
 
               03673         .line   144; main.c     MIOS_LCD_PrintCString("BPM  LFO1 LFO2 LFO3 chn: EG1 EG2 EG3 EG4");
0016 0E00      03674         MOVLW   UPPER(__str_0)
0018 6E00      03675         MOVWF   r0x02
001A 0E00      03676         MOVLW   HIGH(__str_0)
001C 6E00      03677         MOVWF   r0x01
001E 0E00      03678         MOVLW   LOW(__str_0)
0020 6E00      03679         MOVWF   r0x00
0022 5000      03680         MOVF    r0x02, W
0024 6EED      03681         MOVWF   POSTDEC1
0026 5000      03682         MOVF    r0x01, W
0028 6EED      03683         MOVWF   POSTDEC1
002A 5000      03684         MOVF    r0x00, W
002C EC00 F000 03685         CALL    _MIOS_LCD_PrintCString
0030 0E02      03686         MOVLW   0x02
0032 26E9      03687         ADDWF   FSR1L, F
0034 0000      03688         BANKSEL _app_flags
               03689         .line   146; main.c     app_flags.DISPLAY_UPDATE_REQ = 1;
0036 8500      03690         BSF     _app_flags, 2, B
0038 CFEC F000 03691         MOVFF   PREINC1, r0x02
003C CFEC F000 03692         MOVFF   PREINC1, r0x01
0040 CFEC F000 03693         MOVFF   PREINC1, r0x00
0044 0012      03694         RETURN  
               03695 
               03696 ; ; Starting pCode block
               03697 S_main__Timer   code
0000           03698 _Timer:
               03699         .line   128; main.c     LFO_Tick();
0000 EC00 F000 03700         CALL    _LFO_Tick
               03701         .line   130; main.c     EG_Tick();
0004 EC00 F000 03702         CALL    _EG_Tick
0008 0012      03703         RETURN  
               03704 
               03705 ; ; Starting pCode block
               03706 S_main__Tick    code
0000           03707 _Tick:
0000 0000      03708         BANKSEL _load_last
               03709         .line   102; main.c     if (load_last) {
0002 5100      03710         MOVF    _load_last, W, B
0004 E000      03711         BZ      _00110_DS_
0006 0000      03712         BANKSEL (_preset + 1)
               03713         .line   103; main.c     BANKSTICK_LOAD_Evnt( bank, preset);}
0008 5100      03714         MOVF    (_preset + 1), W, B
000A 6EED      03715         MOVWF   POSTDEC1
               03716 ; removed redundant BANKSEL
000C 5100      03717         MOVF    _preset, W, B
000E 6EED      03718         MOVWF   POSTDEC1
0010 0000      03719         BANKSEL (_bank + 1)
0012 5100      03720         MOVF    (_bank + 1), W, B
0014 6EED      03721         MOVWF   POSTDEC1
               03722 ; removed redundant BANKSEL
0016 5100      03723         MOVF    _bank, W, B
0018 EC00 F000 03724         CALL    _BANKSTICK_LOAD_Evnt
001C 0E03      03725         MOVLW   0x03
001E 26E9      03726         ADDWF   FSR1L, F
gpasm-0.13.6 beta               _output/main__mios-gpasm-tmp.asm7-10-2008  15:16:01          PAGE 70


LOC  OBJECT CODE     LINE SOURCE TEXT
  VALUE
 
0020           03727 _00110_DS_:
0020 0000      03728         BANKSEL _update_led
               03729         .line   104; main.c     if (update_led) {
0022 5100      03730         MOVF    _update_led, W, B
0024 E000      03731         BZ      _00112_DS_
               03732         .line   106; main.c     BANKSTICK_Dout_Update( );}
0026 EC00 F000 03733         CALL    _BANKSTICK_Dout_Update
002A           03734 _00112_DS_:
002A 0000      03735         BANKSEL _update_led
               03736         .line   107; main.c     if (update_led) {
002C 5100      03737         MOVF    _update_led, W, B
002E E000      03738         BZ      _00114_DS_
               03739         .line   109; main.c     BANKSTICK_Dout_Update_2( );}
0030 EC00 F000 03740         CALL    _BANKSTICK_Dout_Update_2
0034           03741 _00114_DS_:
0034 0000      03742         BANKSEL _update_led
               03743         .line   110; main.c     if (update_led) {
0036 5100      03744         MOVF    _update_led, W, B
0038 E000      03745         BZ      _00116_DS_
               03746         .line   112; main.c     BANKSTICK_Dout_Update_3( );}  
003A EC00 F000 03747         CALL    _BANKSTICK_Dout_Update_3
003E           03748 _00116_DS_:
003E 0000      03749         BANKSEL _update_preset_led
               03750         .line   113; main.c     if (update_preset_led) {
0040 5100      03751         MOVF    _update_preset_led, W, B
0042 E000      03752         BZ      _00118_DS_
0044 0000      03753         BANKSEL (_preset + 1)
               03754         .line   114; main.c     BANKSTICK_preset_LEDs_Update( bank, preset );}
0046 5100      03755         MOVF    (_preset + 1), W, B
0048 6EED      03756         MOVWF   POSTDEC1
               03757 ; removed redundant BANKSEL
004A 5100      03758         MOVF    _preset, W, B
004C 6EED      03759         MOVWF   POSTDEC1
004E 0000      03760         BANKSEL (_bank + 1)
0050 5100      03761         MOVF    (_bank + 1), W, B
0052 6EED      03762         MOVWF   POSTDEC1
               03763 ; removed redundant BANKSEL
0054 5100      03764         MOVF    _bank, W, B
0056 EC00 F000 03765         CALL    _BANKSTICK_preset_LEDs_Update
005A 0E03      03766         MOVLW   0x03
005C 26E9      03767         ADDWF   FSR1L, F
005E           03768 _00118_DS_:
               03769         .line   117; main.c     MAP_Tick();
005E EC00 F000 03770         CALL    _MAP_Tick
               03771         .line   119; main.c     AOUT_Update();
0062 EC00 F000 03772         CALL    _AOUT_Update
0066 0012      03773         RETURN  
               03774 
               03775 ; ; Starting pCode block
               03776 S_main__Init    code
0000           03777 _Init:
               03778         .line   71; main.c      MIOS_AIN_NumberSet(AIN_NUMBER_INPUTS);
0000 0E00      03779         MOVLW   0x00
0002 EC00 F000 03780         CALL    _MIOS_AIN_NumberSet
gpasm-0.13.6 beta               _output/main__mios-gpasm-tmp.asm7-10-2008  15:16:01          PAGE 71


LOC  OBJECT CODE     LINE SOURCE TEXT
  VALUE
 
               03781         .line   75; main.c      MIOS_AIN_UnMuxed();
0006 EC00 F000 03782         CALL    _MIOS_AIN_UnMuxed
               03783         .line   77; main.c      MIOS_AIN_DeadbandSet(AIN_DEADBAND);
000A 0E03      03784         MOVLW   0x03
000C EC00 F000 03785         CALL    _MIOS_AIN_DeadbandSet
               03786         .line   79; main.c      MIOS_SRIO_NumberSet(7);
0010 0E07      03787         MOVLW   0x07
0012 EC00 F000 03788         CALL    _MIOS_SRIO_NumberSet
               03789         .line   80; main.c      MIOS_SRIO_UpdateFrqSet(2);
0016 0E02      03790         MOVLW   0x02
0018 EC00 F000 03791         CALL    _MIOS_SRIO_UpdateFrqSet
               03792         .line   82; main.c      MIOS_TIMER_Init(0, 10000); // 1 mS / 100 nS = 10000 cycles
001C 0E27      03793         MOVLW   0x27
001E 6EED      03794         MOVWF   POSTDEC1
0020 0E10      03795         MOVLW   0x10
0022 6EED      03796         MOVWF   POSTDEC1
0024 0E00      03797         MOVLW   0x00
0026 EC00 F000 03798         CALL    _MIOS_TIMER_Init
002A 0E02      03799         MOVLW   0x02
002C 26E9      03800         ADDWF   FSR1L, F
               03801         .line   85; main.c      BANKSTICK_Init();
002E EC00 F000 03802         CALL    _BANKSTICK_Init
               03803         .line   87; main.c      AOUT_Init();
0032 EC00 F000 03804         CALL    _AOUT_Init
               03805         .line   89; main.c      MIDI_Init();
0036 EC00 F000 03806         CALL    _MIDI_Init
               03807         .line   91; main.c      LFO_Init();
003A EC00 F000 03808         CALL    _LFO_Init
               03809         .line   93; main.c      EG_Init();
003E EC00 F000 03810         CALL    _EG_Init
               03811         .line   95; main.c      MAP_Init();
0042 EC00 F000 03812         CALL    _MAP_Init
0046 0012      03813         RETURN  
               03814 
               03815 ; ; Starting pCode block
0048           03816 __str_0:
0048 5042 204D 03817         DB      0x42, 0x50, 0x4d, 0x20, 0x20, 0x4c, 0x46, 0x4f, 0x31, 0x20, 0x4c, 0x46
004C 4C20 4F46
0050 2031 464C
0054 324F 4C20 03818         DB      0x4f, 0x32, 0x20, 0x4c, 0x46, 0x4f, 0x33, 0x20, 0x63, 0x68, 0x6e, 0x3a
0058 4F46 2033
005C 6863 3A6E
0060 4520 3147 03819         DB      0x20, 0x45, 0x47, 0x31, 0x20, 0x45, 0x47, 0x32, 0x20, 0x45, 0x47, 0x33
0064 4520 3247
0068 4520 3347
006C 4520 3447 03820         DB      0x20, 0x45, 0x47, 0x34, 0x00
0070 0000
               03821 ; ; Starting pCode block
0072           03822 __str_1:
0072 4153 4556 03823         DB      0x53, 0x41, 0x56, 0x45, 0x3a, 0x20, 0x63, 0x68, 0x6f, 0x6f, 0x73, 0x65
0076 203A 6863
007A 6F6F 6573
007E 6220 6E61 03824         DB      0x20, 0x62, 0x61, 0x6e, 0x6b, 0x20, 0x61, 0x6e, 0x64, 0x20, 0x70, 0x72
0082 206B 6E61
gpasm-0.13.6 beta               _output/main__mios-gpasm-tmp.asm7-10-2008  15:16:01          PAGE 72


LOC  OBJECT CODE     LINE SOURCE TEXT
  VALUE
 
0086 2064 7270
008A 7365 7465 03825         DB      0x65, 0x73, 0x65, 0x74, 0x2e, 0x2e, 0x2e, 0x00
008E 2E2E 002E
               03826 ; ; Starting pCode block
0092           03827 __str_2:
0092 3436 312F 03828         DB      0x36, 0x34, 0x2f, 0x31, 0x00
0096 0000
               03829 ; ; Starting pCode block
0098           03830 __str_3:
0098 3233 312F 03831         DB      0x33, 0x32, 0x2f, 0x31, 0x00
009C 0000
               03832 ; ; Starting pCode block
009E           03833 __str_4:
009E 3631 312F 03834         DB      0x31, 0x36, 0x2f, 0x31, 0x00
00A2 0000
               03835 ; ; Starting pCode block
00A4           03836 __str_5:
00A4 3820 312F 03837         DB      0x20, 0x38, 0x2f, 0x31, 0x00
00A8 0000
               03838 ; ; Starting pCode block
00AA           03839 __str_6:
00AA 3420 312F 03840         DB      0x20, 0x34, 0x2f, 0x31, 0x00
00AE 0000
               03841 ; ; Starting pCode block
00B0           03842 __str_7:
00B0 3220 312F 03843         DB      0x20, 0x32, 0x2f, 0x31, 0x00
00B4 0000
               03844 ; ; Starting pCode block
00B6           03845 __str_8:
00B6 3120 312F 03846         DB      0x20, 0x31, 0x2f, 0x31, 0x00
00BA 0000
               03847 ; ; Starting pCode block
00BC           03848 __str_9:
00BC 2F31 0032 03849         DB      0x31, 0x2f, 0x32, 0x00
               03850 ; ; Starting pCode block
00C0           03851 __str_10:
00C0 2F31 0034 03852         DB      0x31, 0x2f, 0x34, 0x00
               03853 ; ; Starting pCode block
00C4           03854 __str_11:
00C4 2F31 0038 03855         DB      0x31, 0x2f, 0x38, 0x00
               03856 ; ; Starting pCode block
00C8           03857 __str_12:
00C8 2F31 3631 03858         DB      0x31, 0x2f, 0x31, 0x36, 0x00
00CC 0000
               03859 
               03860 
               03861 ; Statistics:
               03862 ; code size:     6442 (0x192a) bytes ( 4.91%)
               03863 ;                3221 (0x0c95) words
               03864 ; udata size:      16 (0x0010) bytes ( 0.42%)
               03865 ; access size:      6 (0x0006) bytes
               03866 
               03867 
gpasm-0.13.6 beta               _output/main__mios-gpasm-tmp.asm7-10-2008  15:16:01          PAGE 73


SYMBOL TABLE
  LABEL                             VALUE 

FSR0H                             00000FE2
FSR0L                             00000FE1
FSR1L                             00000FE9
FSR2L                             00000FD9
INDF0                             00000FE7
PCL                               00000FF9
PCLATH                            00000FFA
PCLATU                            00000FFB
PLUSW2                            00000FDB
POSTDEC1                          00000FED
PREINC1                           00000FEC
PRODH                             00000FF4
STATUS                            00000FD8
WREG                              00000FE8
_00110_DS_                        00000020
_00112_DS_                        0000002A
_00114_DS_                        00000034
_00116_DS_                        0000003E
_00118_DS_                        0000005E
_00132_DS_                        00000014
_00133_DS_                        00000030
_00134_DS_                        000000E4
_00136_DS_                        00000108
_00144_DS_                        0000002E
_00148_DS_                        0000008A
_00149_DS_                        000000A8
_00150_DS_                        000000C6
_00151_DS_                        000000E4
_00152_DS_                        00000102
_00153_DS_                        00000120
_00154_DS_                        0000013E
_00155_DS_                        0000015C
_00156_DS_                        0000017A
_00157_DS_                        00000198
_00158_DS_                        000001B6
_00160_DS_                        000001D4
_00164_DS_                        0000005A
_00193_DS_                        000000E4
_00195_DS_                        0000011C
_00197_DS_                        0000014E
_00199_DS_                        00000180
_00204_DS_                        000001B2
_00207_DS_                        000001FE
_00210_DS_                        0000024C
_00213_DS_                        0000029A
_00215_DS_                        000002D2
_00217_DS_                        00000304
_00219_DS_                        00000336
_00224_DS_                        00000368
_00227_DS_                        000003B8
_00230_DS_                        0000040A
_00233_DS_                        0000045C
_00235_DS_                        00000496
gpasm-0.13.6 beta               _output/main__mios-gpasm-tmp.asm7-10-2008  15:16:01          PAGE 74


LOC  OBJECT CODE     LINE SOURCE TEXT
  VALUE
 
_00237_DS_                        000004C8
_00241_DS_                        000004F2
_00244_DS_                        00000544
_00247_DS_                        00000596
_00250_DS_                        000005DA
_00253_DS_                        0000061E
_00255_DS_                        00000646
_00257_DS_                        0000068C
_00261_DS_                        000006D4
_00264_DS_                        00000718
_00267_DS_                        00000766
_00270_DS_                        000007B4
_00273_DS_                        00000802
_00276_DS_                        00000846
_00279_DS_                        00000894
_00282_DS_                        000008E4
_00284_DS_                        0000092A
_00288_DS_                        00000962
_00290_DS_                        000009A8
_00294_DS_                        000009E0
_00297_DS_                        00000A0C
_00299_DS_                        00000A24
_00301_DS_                        00000A60
_00302_DS_                        00000A6C
_00304_DS_                        00000A8A
_00305_DS_                        00000A96
_00307_DS_                        00000AB4
_00308_DS_                        00000AC0
_00310_DS_                        00000ADE
_00311_DS_                        00000AEA
_00313_DS_                        00000B08
_00314_DS_                        00000B14
_00316_DS_                        00000B32
_00317_DS_                        00000B3E
_00319_DS_                        00000B5C
_00320_DS_                        00000B68
_00322_DS_                        00000B9C
_00326_DS_                        00000B82
_00327_DS_                        00000BA8
_00329_DS_                        00000BC6
_00330_DS_                        00000BCC
_00331_DS_                        00000BD4
_00332_DS_                        00000BDC
_00336_DS_                        00000BE4
_00338_DS_                        00000C14
_00339_DS_                        00000C2E
_00342_DS_                        00000C4A
_00344_DS_                        00000C7A
_00345_DS_                        00000C94
_00348_DS_                        00000CB0
_00350_DS_                        00000CE0
_00351_DS_                        00000CFA
_00354_DS_                        00000D16
_00356_DS_                        00000D46
gpasm-0.13.6 beta               _output/main__mios-gpasm-tmp.asm7-10-2008  15:16:01          PAGE 75


LOC  OBJECT CODE     LINE SOURCE TEXT
  VALUE
 
_00357_DS_                        00000D60
_00360_DS_                        00000D7C
_00363_DS_                        00000DA6
_00366_DS_                        00000DD0
_00369_DS_                        00000DF8
_00372_DS_                        00000E20
_00376_DS_                        00000E2A
_00378_DS_                        000001EE
_00380_DS_                        0000023C
_00382_DS_                        0000028A
_00384_DS_                        000003A8
_00386_DS_                        000003FA
_00388_DS_                        0000044C
_00390_DS_                        00000534
_00392_DS_                        00000586
_00394_DS_                        000005CA
_00396_DS_                        0000060E
_00398_DS_                        0000067C
_00400_DS_                        000006C4
_00402_DS_                        00000708
_00404_DS_                        00000756
_00406_DS_                        000007A4
_00408_DS_                        000007F2
_00410_DS_                        00000836
_00412_DS_                        00000884
_00414_DS_                        000008D4
_00507_DS_                        0000005C
_00509_DS_                        000000F8
_00511_DS_                        0000012A
_00513_DS_                        0000015C
_00515_DS_                        0000018E
_00520_DS_                        000002AE
_00522_DS_                        000002E0
_00524_DS_                        00000312
_00526_DS_                        00000344
_00531_DS_                        00000472
_00533_DS_                        000004A4
_00572_DS_                        00000080
_00577_DS_                        0000010E
_00582_DS_                        0000019C
_00585_DS_                        00000216
_00588_DS_                        00000290
_00591_DS_                        00000334
_00594_DS_                        00000380
_00597_DS_                        000003D0
_00600_DS_                        00000420
_00605_DS_                        000002E2
_00607_DS_                        00000470
_00615_DS_                        000004C6
_00617_DS_                        0000050E
_00625_DS_                        00000564
_00627_DS_                        000005AC
_00633_DS_                        000005FC
_00636_DS_                        00000640
gpasm-0.13.6 beta               _output/main__mios-gpasm-tmp.asm7-10-2008  15:16:01          PAGE 76


LOC  OBJECT CODE     LINE SOURCE TEXT
  VALUE
 
_00664_DS_                        00000060
_00666_DS_                        00000324
_ADCON0                           00000000
_ADCON0bits                       00000000
_ADCON1                           00000000
_ADCON1bits                       00000000
_ADCON2                           00000000
_ADCON2bits                       00000000
_ADRESH                           00000000
_ADRESL                           00000000
_AIN_NotifyChange                 00000000
_AOUT_Init                        00000000
_AOUT_Update                      00000000
_BANKSTICK_Dout_Update            00000000
_BANKSTICK_Dout_Update_2          00000000
_BANKSTICK_Dout_Update_3          00000000
_BANKSTICK_Init                   00000000
_BANKSTICK_LOAD_Evnt              00000000
_BANKSTICK_SAVE_Evnt              00000000
_BANKSTICK_preset_LEDs_Update     00000000
_BAUDCON                          00000000
_BAUDCONbits                      00000000
_BSR                              00000000
_BSRbits                          00000000
_CCP1CON                          00000000
_CCP1CONbits                      00000000
_CCP2CON                          00000000
_CCP2CONbits                      00000000
_CCPR1H                           00000000
_CCPR1L                           00000000
_CCPR2H                           00000000
_CCPR2L                           00000000
_CMCON                            00000000
_CMCONbits                        00000000
_CVRCON                           00000000
_CVRCONbits                       00000000
_CursorBpm                        00000000
_DIN_NotifyToggle                 00000000
_DISPLAY_Init                     00000000
_DISPLAY_Tick                     00000000
_DISPLAY_lfobpm                   00000000
_DISPLAY_lfobpm_lfo_bpm_temp_1_1  00000000
_ECCP1AS                          00000000
_ECCP1ASbits                      00000000
_EEADR                            00000000
_EECON1                           00000000
_EECON1bits                       00000000
_EECON2                           00000000
_EEDATA                           00000000
_EG_Init                          00000000
_EG_Tick                          00000000
_ENC_NotifyChange                 00000000
_ENC_NotifyChange_new_value_1_1   00000000
_FSR0H                            00000000
gpasm-0.13.6 beta               _output/main__mios-gpasm-tmp.asm7-10-2008  15:16:01          PAGE 77


LOC  OBJECT CODE     LINE SOURCE TEXT
  VALUE
 
_FSR0Hbits                        00000000
_FSR0L                            00000000
_FSR1H                            00000000
_FSR1Hbits                        00000000
_FSR1L                            00000000
_FSR2H                            00000000
_FSR2Hbits                        00000000
_FSR2L                            00000000
_HLVDCON                          00000000
_HLVDCONbits                      00000000
_INDF0                            00000000
_INDF1                            00000000
_INDF2                            00000000
_INTCON                           00000000
_INTCON2                          00000000
_INTCON2bits                      00000000
_INTCON3                          00000000
_INTCON3bits                      00000000
_INTCONbits                       00000000
_IPR1                             00000000
_IPR1bits                         00000000
_IPR2                             00000000
_IPR2bits                         00000000
_Init                             00000000
_LATA                             00000000
_LATAbits                         00000000
_LATB                             00000000
_LATBbits                         00000000
_LATC                             00000000
_LATCbits                         00000000
_LATD                             00000000
_LATDbits                         00000000
_LATE                             00000000
_LATEbits                         00000000
_LFO_Init                         00000000
_LFO_Tick                         00000000
_MAP_Init                         00000000
_MAP_Tick                         00000000
_MIDI_Evnt                        00000000
_MIDI_Init                        00000000
_MIOS_AIN_DeadbandSet             00000000
_MIOS_AIN_NumberSet               00000000
_MIOS_AIN_UnMuxed                 00000000
_MIOS_BOX_CFG0                    00000000
_MIOS_BOX_CFG1                    00000000
_MIOS_BOX_STAT                    00000000
_MIOS_DOUT_PinGet                 00000000
_MIOS_DOUT_PinSet                 00000000
_MIOS_DOUT_SRGet                  00000000
_MIOS_DOUT_SRSet                  00000000
_MIOS_ENC_PIN_TABLE               00000000
_MIOS_HLP_16bitAddSaturate        00000000
_MIOS_LCD_Clear                   00000000
_MIOS_LCD_CursorSet               00000000
gpasm-0.13.6 beta               _output/main__mios-gpasm-tmp.asm7-10-2008  15:16:01          PAGE 78


LOC  OBJECT CODE     LINE SOURCE TEXT
  VALUE
 
_MIOS_LCD_PrintBCD3               00000000
_MIOS_LCD_PrintCString            00000000
_MIOS_MPROC_EVENT_TABLE           00000000
_MIOS_PARAMETER1                  00000000
_MIOS_PARAMETER2                  00000000
_MIOS_PARAMETER3                  00000000
_MIOS_SRIO_NumberSet              00000000
_MIOS_SRIO_UpdateFrqSet           00000000
_MIOS_TIMER_Init                  00000000
_MPROC_NotifyFoundEvent           00000000
_MPROC_NotifyReceivedByte         00000000
_MPROC_NotifyReceivedEvnt         00000000
_MPROC_NotifyTimeout              00000000
_OSCCON                           00000000
_OSCCONbits                       00000000
_OSCTUNE                          00000000
_OSCTUNEbits                      00000000
_PCL                              00000000
_PCLATH                           00000000
_PCLATHbits                       00000000
_PCLATU                           00000000
_PCLATUbits                       00000000
_PIE1                             00000000
_PIE1bits                         00000000
_PIE2                             00000000
_PIE2bits                         00000000
_PIR1                             00000000
_PIR1bits                         00000000
_PIR2                             00000000
_PIR2bits                         00000000
_PLUSW0                           00000000
_PLUSW1                           00000000
_PLUSW2                           00000000
_PORTA                            00000000
_PORTAbits                        00000000
_PORTB                            00000000
_PORTBbits                        00000000
_PORTC                            00000000
_PORTCbits                        00000000
_PORTD                            00000000
_PORTDbits                        00000000
_PORTE                            00000000
_PORTEbits                        00000000
_POSTDEC0                         00000000
_POSTDEC1                         00000000
_POSTDEC2                         00000000
_POSTINC0                         00000000
_POSTINC1                         00000000
_POSTINC2                         00000000
_PR2                              00000000
_PREINC0                          00000000
_PREINC1                          00000000
_PREINC2                          00000000
_PRODH                            00000000
gpasm-0.13.6 beta               _output/main__mios-gpasm-tmp.asm7-10-2008  15:16:01          PAGE 79


LOC  OBJECT CODE     LINE SOURCE TEXT
  VALUE
 
_PRODL                            00000000
_PWM1CON                          00000000
_PWM1CONbits                      00000000
_RCON                             00000000
_RCONbits                         00000000
_RCREG                            00000000
_RCSTA                            00000000
_RCSTAbits                        00000000
_SPBRG                            00000000
_SPBRGH                           00000000
_SR_Service_Finish                00000000
_SR_Service_Prepare               00000000
_SSPADD                           00000000
_SSPBUF                           00000000
_SSPCON1                          00000000
_SSPCON1bits                      00000000
_SSPCON2                          00000000
_SSPCON2bits                      00000000
_SSPSTAT                          00000000
_SSPSTATbits                      00000000
_STATUS                           00000000
_STATUSbits                       00000000
_STKPTR                           00000000
_STKPTRbits                       00000000
_T0CON                            00000000
_T0CONbits                        00000000
_T1CON                            00000000
_T1CONbits                        00000000
_T2CON                            00000000
_T2CONbits                        00000000
_T3CON                            00000000
_T3CONbits                        00000000
_TABLAT                           00000000
_TBLPTRH                          00000000
_TBLPTRL                          00000000
_TBLPTRU                          00000000
_TBLPTRUbits                      00000000
_TMR0H                            00000000
_TMR0L                            00000000
_TMR1H                            00000000
_TMR1L                            00000000
_TMR2                             00000000
_TMR3H                            00000000
_TMR3L                            00000000
_TOSH                             00000000
_TOSL                             00000000
_TOSU                             00000000
_TOSUbits                         00000000
_TRISA                            00000000
_TRISAbits                        00000000
_TRISB                            00000000
_TRISBbits                        00000000
_TRISC                            00000000
_TRISCbits                        00000000
gpasm-0.13.6 beta               _output/main__mios-gpasm-tmp.asm7-10-2008  15:16:01          PAGE 80


LOC  OBJECT CODE     LINE SOURCE TEXT
  VALUE
 
_TRISD                            00000000
_TRISDbits                        00000000
_TRISE                            00000000
_TRISEbits                        00000000
_TXREG                            00000000
_TXSTA                            00000000
_TXSTAbits                        00000000
_Tick                             00000000
_Timer                            00000000
_WDTCON                           00000000
_WDTCONbits                       00000000
_WREG                             00000000
__18F4620                         00000001
__str_0                           00000048
__str_1                           00000072
__str_10                          000000C0
__str_11                          000000C4
__str_12                          000000C8
__str_2                           00000092
__str_3                           00000098
__str_4                           0000009E
__str_5                           000000A4
__str_6                           000000AA
__str_7                           000000B0
__str_8                           000000B6
__str_9                           000000BC
_all_param                        00000000
_app_flags                        00000000
_bank                             00000000
_eg0                              00000000
_eg0_value                        00000000
_eg1                              00000000
_eg1_value                        00000000
_eg2                              00000000
_eg2_value                        00000000
_eg3                              00000000
_eg3_value                        00000000
_eg_select_hlp                    00000000
_jog_value                        00000000
_lcd_temp                         00000000
_lfo0_value                       00000000
_lfo1_value                       00000000
_lfo2_value                       00000000
_lfo_bpm_temp                     00000000
_load_last                        00000000
_looper                           00000000
_midi_cc_chn0                     00000000
_midi_note                        00000000
_midi_pitch_bender                00000000
_mios_enc_pin_table               00000000
_mios_mproc_event_table           00000000
_new_note                         00000000
_preset                           00000000
_update_led                       00000000
gpasm-0.13.6 beta               _output/main__mios-gpasm-tmp.asm7-10-2008  15:16:01          PAGE 81


LOC  OBJECT CODE     LINE SOURCE TEXT
  VALUE
 
_update_preset_led                00000000
iTemp109                          00000000
iTemp124                          00000000
iTemp139                          00000000
r0x00                             00000010
r0x01                             00000011
r0x02                             00000012
r0x03                             00000013
r0x04                             00000014
r0x05                             00000015


Errors   :       0
Warnings :       0 reported,       0 suppressed
Messages :       0 reported,       0 suppressed

